(dp0
Vtodays
p1
(lp2
(lp3
I4
a(lp4
I12
aaasVUntil
p5
(lp6
(lp7
I4
a(lp8
I517
aaasVwhose
p9
(lp10
(lp11
I3
a(lp12
I1017
aaasVHoover
p13
(lp14
(lp15
I3
a(lp16
I385
aaasVviolate
p17
(lp18
(lp19
I3
a(lp20
I1077
aaasVSewell
p21
(lp22
(lp23
I3
a(lp24
I259
aaasVinvestigation
p25
(lp26
(lp27
I3
a(lp28
I83
aaasVWestern
p29
(lp30
(lp31
I6
a(lp32
I529
aaasVunder
p33
(lp34
(lp35
I3
a(lp36
I644
aI806
aaasVworth
p37
(lp38
(lp39
I6
a(lp40
I57
aaasVplansSteve
p41
(lp42
(lp43
I5
a(lp44
I469
aaasV\u201c\u2018essential
p45
(lp46
(lp47
I3
a(lp48
I2056
aaasVevery
p49
(lp50
(lp51
I4
a(lp52
I678
aaasV22000
p53
(lp54
(lp55
I6
a(lp56
I67
aI144
aaasVvast
p57
(lp58
(lp59
I5
a(lp60
I433
aaasVcompanies
p61
(lp62
(lp63
I3
a(lp64
I15
aI567
aI738
aI849
aI1008
aI1360
aI1487
aI1658
aI1829
aaasVtoday\u201cInstead
p65
(lp66
(lp67
I3
a(lp68
I60
aaasVigniting
p69
(lp70
(lp71
I4
a(lp72
I328
aaasVgovernment\u201cThe
p73
(lp74
(lp75
I3
a(lp76
I246
aaasVforce
p77
(lp78
(lp79
I3
a(lp80
I566
aI1175
aaasV\u201cis
p81
(lp82
(lp83
I3
a(lp84
I2204
aaasVphones
p85
(lp86
(lp87
I3
a(lp88
I1179
aaasVestimates
p89
(lp90
(lp91
I5
a(lp92
I152
aaa(lp93
(lp94
I6
a(lp95
I185
aaaasVsurrounding
p96
(lp97
(lp98
I4
a(lp99
I545
aaasVlikely
p100
(lp101
(lp102
I4
a(lp103
I39
aI597
aaasVexpressive
p104
(lp105
(lp106
I3
a(lp107
I2170
aaasVspecs
p108
(lp109
(lp110
I4
a(lp111
I271
aaasVeven
p112
(lp113
(lp114
I3
a(lp115
I1001
aaa(lp116
(lp117
I4
a(lp118
I530
aI599
aI647
aaaa(lp119
(lp120
I5
a(lp121
I264
aaaa(lp122
(lp123
I6
a(lp124
I14
aI81
aI289
aaaasVhide
p125
(lp126
(lp127
I3
a(lp128
I31
aaasVliberty
p129
(lp130
(lp131
I3
a(lp132
I135
aI1770
aaasVAmazon
p133
(lp134
(lp135
I5
a(lp136
I0
aI41
aI179
aI213
aI232
aI274
aI302
aI331
aI386
aI429
aI461
aI486
aI552
aI599
aI617
aI660
aaasVMarsproduces
p137
(lp138
(lp139
I4
a(lp140
I427
aaasVconduct
p141
(lp142
(lp143
I3
a(lp144
I893
aI2205
aaasVSatellites
p145
(lp146
(lp147
I4
a(lp148
I672
aaasVnew
p149
(lp150
(lp151
I3
a(lp152
I1417
aaa(lp153
(lp154
I5
a(lp155
I333
aaaasVincreasing
p156
(lp157
(lp158
I4
a(lp159
I716
aI852
aaasVever
p160
(lp161
(lp162
I3
a(lp163
I273
aaasVdeemed
p164
(lp165
(lp166
I3
a(lp167
I1020
aaasVsimultaneously
p168
(lp169
(lp170
I5
a(lp171
I563
aaasVnever
p172
(lp173
(lp174
I3
a(lp175
I536
aaasVrichest
p176
(lp177
(lp178
I3
a(lp179
I1825
aaasVatoms
p180
(lp181
(lp182
I4
a(lp183
I293
aaasVobtained
p184
(lp185
(lp186
I6
a(lp187
I107
aaasVemployees
p188
(lp189
(lp190
I3
a(lp191
I1809
aaasVreports
p192
(lp193
(lp194
I6
a(lp195
I166
aI204
aaasVsecurityIf
p196
(lp197
(lp198
I6
a(lp199
I325
aaasVanalysts
p200
(lp201
(lp202
I6
a(lp203
I448
aaasVpack
p204
(lp205
(lp206
I4
a(lp207
I465
aI470
aaasVchanges
p208
(lp209
(lp210
I3
a(lp211
I310
aaasVGroup
p212
(lp213
(lp214
I5
a(lp215
I53
aaa(lp216
(lp217
I6
a(lp218
I172
aaaasVRussians
p219
(lp220
(lp221
I4
a(lp222
I75
aaasVRather
p223
(lp224
(lp225
I3
a(lp226
I1766
aaasVhighly
p227
(lp228
(lp229
I5
a(lp230
I239
aaa(lp231
(lp232
I6
a(lp233
I42
aaaasVAlso
p234
(lp235
(lp236
I4
a(lp237
I687
aaasVshoddy
p238
(lp239
(lp240
I3
a(lp241
I85
aaasVtotal
p242
(lp243
(lp244
I6
a(lp245
I159
aaasVspoke
p246
(lp247
(lp248
I3
a(lp249
I1603
aaasVwould
p250
(lp251
(lp252
I3
a(lp253
I466
aI480
aI527
aI732
aI748
aI936
aI1076
aI1097
aI1375
aI1794
aI1923
aI1962
aI2073
aaa(lp254
(lp255
I4
a(lp256
I21
aI288
aI604
aI636
aI705
aI723
aI863
aI903
aaaa(lp257
(lp258
I5
a(lp259
I624
aaaa(lp260
(lp261
I6
a(lp262
I148
aaaasV\u201cwould
p263
(lp264
(lp265
I3
a(lp266
I1797
aaasVcall
p267
(lp268
(lp269
I3
a(lp270
I221
aI263
aI1582
aaasVtherefore
p271
(lp272
(lp273
I4
a(lp274
I614
aaasVstrike
p275
(lp276
(lp277
I6
a(lp278
I237
aaasVtype
p279
(lp280
(lp281
I4
a(lp282
I330
aaa(lp283
(lp284
I6
a(lp285
I439
aaaasVuntil
p286
(lp287
(lp288
I3
a(lp289
I2267
aaa(lp290
(lp291
I6
a(lp292
I467
aaaasVit
p293
(lp294
(lp295
I3
a(lp296
I199
aI526
aI701
aI773
aI804
aI869
aI909
aI934
aI994
aI1663
aI1717
aI1740
aI1767
aI1834
aI1846
aI1848
aI2034
aI2041
aI2104
aI2138
aI2183
aaa(lp297
(lp298
I4
a(lp299
I45
aI89
aI548
aI761
aI916
aaaa(lp300
(lp301
I5
a(lp302
I396
aI415
aI554
aI557
aI587
aI623
aaaa(lp303
(lp304
I6
a(lp305
I315
aI336
aI340
aaaasVphone
p306
(lp307
(lp308
I3
a(lp309
I444
aI476
aI831
aI861
aI1145
aI1205
aI1738
aaa(lp310
(lp311
I6
a(lp312
I77
aI475
aaaasVcompanys
p313
(lp314
(lp315
I3
a(lp316
I594
aaa(lp317
(lp318
I5
a(lp319
I668
aaaasVcircumstances
p320
(lp321
(lp322
I3
a(lp323
I643
aI970
aI1753
aI2017
aaasVjoin
p324
(lp325
(lp326
I6
a(lp327
I98
aI402
aaasV1994
p328
(lp329
(lp330
I3
a(lp331
I639
aaasVpermits
p332
(lp333
(lp334
I3
a(lp335
I2178
aaasVwork
p336
(lp337
(lp338
I5
a(lp339
I484
aaasVtheories
p340
(lp341
(lp342
I3
a(lp343
I377
aaasV\u201cWhile
p344
(lp345
(lp346
I3
a(lp347
I1055
aaasVinstall
p348
(lp349
(lp350
I3
a(lp351
I742
aaasVexample
p352
(lp353
(lp354
I3
a(lp355
I1430
aI1443
aI2219
aaasVreplicateBut
p356
(lp357
(lp358
I5
a(lp359
I546
aaasVgive
p360
(lp361
(lp362
I3
a(lp363
I201
aI528
aI615
aI803
aI1252
aI1264
aI1759
aaa(lp364
(lp365
I4
a(lp366
I725
aaaa(lp367
(lp368
I6
a(lp369
I33
aaaasVcited
p370
(lp371
(lp372
I3
a(lp373
I208
aI759
aI788
aI1884
aI1930
aI2011
aI2213
aaasVinvolve
p374
(lp375
(lp376
I3
a(lp377
I2107
aaasVindicates
p378
(lp379
(lp380
I3
a(lp381
I2152
aaasVwant
p382
(lp383
(lp384
I4
a(lp385
I3
aI456
aaasV\u2018White
p386
(lp387
(lp388
I3
a(lp389
I2246
aaasVcarriers
p390
(lp391
(lp392
I5
a(lp393
I676
aaasVprovide
p394
(lp395
(lp396
I3
a(lp397
I778
aI822
aI851
aI974
aI1172
aI1181
aI2285
aaa(lp398
(lp399
I5
a(lp400
I199
aaaasVpenregister
p401
(lp402
(lp403
I3
a(lp404
I838
aI845
aaasVJournal
p405
(lp406
(lp407
I5
a(lp408
I171
aaasVfar
p409
(lp410
(lp411
I3
a(lp412
I1259
aI2013
aaa(lp413
(lp414
I4
a(lp415
I221
aI317
aaaa(lp416
(lp417
I6
a(lp418
I246
aaaasVaccusations
p419
(lp420
(lp421
I3
a(lp422
I218
aI289
aI305
aaasVsignificance
p423
(lp424
(lp425
I3
a(lp426
I1552
aaasVA
p427
(lp428
(lp429
I3
a(lp430
I2276
aaa(lp431
(lp432
I4
a(lp433
I17
aaaa(lp434
(lp435
I6
a(lp436
I45
aI102
aI127
aI141
aaaasVafter
p437
(lp438
(lp439
I3
a(lp440
I224
aaasVdemanding
p441
(lp442
(lp443
I3
a(lp444
I1105
aaasVwrong
p445
(lp446
(lp447
I3
a(lp448
I1588
aaasV\u201cprovided
p449
(lp450
(lp451
I3
a(lp452
I1919
aI1955
aaasVpresident
p453
(lp454
(lp455
I5
a(lp456
I472
aaasVlaw
p457
(lp458
(lp459
I3
a(lp460
I316
aI636
aI649
aI1074
aI1358
aI1775
aI2253
aaa(lp461
(lp462
I6
a(lp463
I129
aI409
aaaasVmeaningful
p464
(lp465
(lp466
I3
a(lp467
I1511
aaasVambivalent
p468
(lp469
(lp470
I3
a(lp471
I1353
aaasVCFO
p472
(lp473
(lp474
I5
a(lp475
I661
aaasVAll
p476
(lp477
(lp478
I3
a(lp479
I66
aI769
aI808
aI961
aI988
aI1031
aI1167
aI1404
aI1594
aI1942
aaasVthings
p480
(lp481
(lp482
I3
a(lp483
I2070
aaa(lp484
(lp485
I4
a(lp486
I854
aI920
aaaa(lp487
(lp488
I6
a(lp489
I496
aaaasVoperate
p490
(lp491
(lp492
I5
a(lp493
I12
aI309
aaasVorder
p494
(lp495
(lp496
I3
a(lp497
I19
aI454
aI511
aI602
aI620
aI886
aI1049
aI1367
aI1657
aI1788
aI1844
aaasVoperations
p498
(lp499
(lp500
I3
a(lp501
I2057
aaa(lp502
(lp503
I5
a(lp504
I561
aaaasVEven
p505
(lp506
(lp507
I3
a(lp508
I1856
aaa(lp509
(lp510
I4
a(lp511
I630
aaaasVinterpretation
p512
(lp513
(lp514
I3
a(lp515
I1541
aI1591
aaasVJanuary\u201cThose
p516
(lp517
(lp518
I5
a(lp519
I675
aaasVover
p520
(lp521
(lp522
I4
a(lp523
I940
aaasVvary
p524
(lp525
(lp526
I6
a(lp527
I167
aaasVderided
p528
(lp529
(lp530
I3
a(lp531
I1973
aaasVcounterterrorism
p532
(lp533
(lp534
I6
a(lp535
I366
aaasVpersonal
p536
(lp537
(lp538
I6
a(lp539
I64
aI71
aaasVHussain
p540
(lp541
(lp542
I6
a(lp543
I230
aaasVwriting
p544
(lp545
(lp546
I3
a(lp547
I930
aaasVbetter
p548
(lp549
(lp550
I4
a(lp551
I80
aI600
aI631
aaasVcompelling
p552
(lp553
(lp554
I3
a(lp555
I737
aI1359
aaasVJudge
p556
(lp557
(lp558
I3
a(lp559
I449
aI1159
aaasVweeks
p560
(lp561
(lp562
I3
a(lp563
I1816
aaasVthem
p564
(lp565
(lp566
I3
a(lp567
I363
aI1253
aI1265
aaasVcombination
p568
(lp569
(lp570
I4
a(lp571
I31
aaasVsafe
p572
(lp573
(lp574
I3
a(lp575
I351
aaa(lp576
(lp577
I4
a(lp578
I906
aaaasVOlsavsky
p579
(lp580
(lp581
I5
a(lp582
I663
aaasVthey
p583
(lp584
(lp585
I3
a(lp586
I1068
aI2072
aaa(lp587
(lp588
I4
a(lp589
I77
aI155
aI885
aaaa(lp590
(lp591
I6
a(lp592
I85
aaaasVrhetoric
p593
(lp594
(lp595
I3
a(lp596
I116
aaasVindictment
p597
(lp598
(lp599
I3
a(lp600
I254
aaasVIndeed
p601
(lp602
(lp603
I3
a(lp604
I1845
aaasVsummerThough
p605
(lp606
(lp607
I6
a(lp608
I239
aaasVIndia
p609
(lp610
(lp611
I5
a(lp612
I452
aaasVside
p613
(lp614
(lp615
I3
a(lp616
I286
aaasVTransport
p617
(lp618
(lp619
I5
a(lp620
I51
aaasVmean
p621
(lp622
(lp623
I4
a(lp624
I900
aaasVprohibit
p625
(lp626
(lp627
I3
a(lp628
I691
aI733
aI2221
aaasVsigning
p629
(lp630
(lp631
I6
a(lp632
I95
aaasVfinancial
p633
(lp634
(lp635
I4
a(lp636
I133
aaasVtaught
p637
(lp638
(lp639
I6
a(lp640
I2
aaasVbusinessBut
p641
(lp642
(lp643
I3
a(lp644
I955
aaasVextract
p645
(lp646
(lp647
I3
a(lp648
I1226
aaasVnetwork
p649
(lp650
(lp651
I5
a(lp652
I17
aI403
aI435
aI505
aI520
aI633
aaa(lp653
(lp654
I6
a(lp655
I120
aaaasVvessels
p656
(lp657
(lp658
I4
a(lp659
I205
aaasVmillions
p660
(lp661
(lp662
I3
a(lp663
I581
aaasVUniversity
p664
(lp665
(lp666
I6
a(lp667
I248
aaasVlawless
p668
(lp669
(lp670
I3
a(lp671
I1764
aaasVlittle
p672
(lp673
(lp674
I3
a(lp675
I1813
aI1854
aaasVfree
p676
(lp677
(lp678
I4
a(lp679
I743
aaa(lp680
(lp681
I5
a(lp682
I141
aaaasVPlanet
p683
(lp684
(lp685
I4
a(lp686
I64
aaasVestimate
p687
(lp688
(lp689
I6
a(lp690
I196
aaasVwanted
p691
(lp692
(lp693
I3
a(lp694
I1626
aaasVStudies
p695
(lp696
(lp697
I4
a(lp698
I238
aaasVcreated
p699
(lp700
(lp701
I3
a(lp702
I38
aaasVlongterm
p703
(lp704
(lp705
I6
a(lp706
I320
aaasV100000
p707
(lp708
(lp709
I3
a(lp710
I1808
aaasVincorporated
p711
(lp712
(lp713
I3
a(lp714
I1572
aaasVcorrections
p715
(lp716
(lp717
I4
a(lp718
I714
aaasValready
p719
(lp720
(lp721
I3
a(lp722
I871
aI946
aI1571
aaasVfeatures
p723
(lp724
(lp725
I3
a(lp726
I344
aI1092
aaasVspying
p727
(lp728
(lp729
I6
a(lp730
I530
aaasVprimary
p731
(lp732
(lp733
I3
a(lp734
I91
aI799
aaasVhearing
p735
(lp736
(lp737
I3
a(lp738
I2277
aaasVBrian
p739
(lp740
(lp741
I5
a(lp742
I662
aaasVanother
p743
(lp744
(lp745
I3
a(lp746
I1112
aaa(lp747
(lp748
I4
a(lp749
I337
aaaasVelementssuch
p750
(lp751
(lp752
I3
a(lp753
I2171
aaasVelectronic
p754
(lp755
(lp756
I3
a(lp757
I653
aaasVservice
p758
(lp759
(lp760
I5
a(lp761
I137
aaasVtheir
p762
(lp763
(lp764
I3
a(lp765
I717
aI1498
aaa(lp766
(lp767
I4
a(lp768
I83
aI162
aI179
aI269
aI616
aI676
aI684
aaaa(lp769
(lp770
I5
a(lp771
I492
aaaa(lp772
(lp773
I6
a(lp774
I186
aaaasVfuelabout
p775
(lp776
(lp777
I4
a(lp778
I537
aaasVneeded
p779
(lp780
(lp781
I5
a(lp782
I647
aaasVharvestingThe
p783
(lp784
(lp785
I4
a(lp786
I74
aaasVtoo
p787
(lp788
(lp789
I4
a(lp790
I220
aI224
aI316
aaa(lp791
(lp792
I6
a(lp793
I551
aaaasVburdensomeApple
p794
(lp795
(lp796
I3
a(lp797
I1796
aaasVlisten
p798
(lp799
(lp800
I4
a(lp801
I946
aaasVurban
p802
(lp803
(lp804
I5
a(lp805
I261
aaasVtool
p806
(lp807
(lp808
I3
a(lp809
I464
aI479
aI933
aI1793
aaasVserve
p810
(lp811
(lp812
I4
a(lp813
I844
aaa(lp814
(lp815
I5
a(lp816
I38
aI406
aaaa(lp817
(lp818
I6
a(lp819
I513
aaaasVtarget
p820
(lp821
(lp822
I6
a(lp823
I527
aaasVMatthew
p824
(lp825
(lp826
I6
a(lp827
I363
aaasVprograms
p828
(lp829
(lp830
I4
a(lp831
I183
aaasVrate
p832
(lp833
(lp834
I4
a(lp835
I347
aaasVproject
p836
(lp837
(lp838
I4
a(lp839
I775
aI801
aaasVmatter
p840
(lp841
(lp842
I3
a(lp843
I877
aaasVpowers
p844
(lp845
(lp846
I3
a(lp847
I522
aI1058
aaasVunclearand
p848
(lp849
(lp850
I6
a(lp851
I165
aaasVpersuasive
p852
(lp853
(lp854
I3
a(lp855
I1551
aaasVsees
p856
(lp857
(lp858
I5
a(lp859
I116
aaasVeffectuate
p860
(lp861
(lp862
I3
a(lp863
I1045
aaasVInstead
p864
(lp865
(lp866
I3
a(lp867
I1340
aaasVtells
p868
(lp869
(lp870
I6
a(lp871
I132
aaasVrelatively
p872
(lp873
(lp874
I3
a(lp875
I1853
aaa(lp876
(lp877
I4
a(lp878
I199
aaaasVforced
p879
(lp880
(lp881
I3
a(lp882
I721
aI1083
aI1911
aaasV1965
p883
(lp884
(lp885
I4
a(lp886
I171
aaasV1967
p887
(lp888
(lp889
I4
a(lp890
I153
aaasVconcedes
p891
(lp892
(lp893
I3
a(lp894
I1847
aaasVthough
p895
(lp896
(lp897
I3
a(lp898
I205
aaa(lp899
(lp900
I5
a(lp901
I616
aaaasVvisionary
p902
(lp903
(lp904
I4
a(lp905
I866
aaasVregular
p906
(lp907
(lp908
I3
a(lp909
I954
aaasVletter
p910
(lp911
(lp912
I3
a(lp913
I1916
aaasVSoufan
p914
(lp915
(lp916
I6
a(lp917
I171
aaasVassisting
p918
(lp919
(lp920
I3
a(lp921
I43
aI1719
aaasVpoints
p922
(lp923
(lp924
I5
a(lp925
I24
aaasVtech
p926
(lp927
(lp928
I3
a(lp929
I14
aI944
aaasVprinciple
p930
(lp931
(lp932
I4
a(lp933
I314
aaasVconductApple
p934
(lp935
(lp936
I3
a(lp937
I2265
aaasVIts
p938
(lp939
(lp940
I5
a(lp941
I252
aaasVsaying
p942
(lp943
(lp944
I3
a(lp945
I229
aI843
aI928
aaasVRidge
p946
(lp947
(lp948
I4
a(lp949
I391
aaasVreactor
p950
(lp951
(lp952
I4
a(lp953
I877
aaasVundue
p954
(lp955
(lp956
I3
a(lp957
I1745
aaasVfolks
p958
(lp959
(lp960
I5
a(lp961
I129
aaasVAWA
p962
(lp963
(lp964
I3
a(lp965
I1843
aaasVdo
p966
(lp967
(lp968
I3
a(lp969
I1039
aI1742
aI1850
aaa(lp970
(lp971
I4
a(lp972
I1
aI79
aI129
aI598
aI912
aaaa(lp973
(lp974
I5
a(lp975
I388
aaaasVmixture
p976
(lp977
(lp978
I4
a(lp979
I412
aaasVdesigning
p980
(lp981
(lp982
I4
a(lp983
I248
aaasVstop
p984
(lp985
(lp986
I3
a(lp987
I399
aI1101
aI1679
aaasVreport
p988
(lp989
(lp990
I5
a(lp991
I177
aI574
aI671
aaasV$10
p992
(lp993
(lp994
I4
a(lp995
I818
aaasVSoviet
p996
(lp997
(lp998
I4
a(lp999
I931
aaasVcomply
p1000
(lp1001
(lp1002
I3
a(lp1003
I1840
aaasVcountries
p1004
(lp1005
(lp1006
I4
a(lp1007
I176
aaa(lp1008
(lp1009
I5
a(lp1010
I526
aaaa(lp1011
(lp1012
I6
a(lp1013
I384
aaaasVWashington
p1014
(lp1015
(lp1016
I6
a(lp1017
I370
aaasVcollusion
p1018
(lp1019
(lp1020
I3
a(lp1021
I168
aaasVshots
p1022
(lp1023
(lp1024
I3
a(lp1025
I402
aaasVimplication
p1026
(lp1027
(lp1028
I3
a(lp1029
I184
aaasVrespond
p1030
(lp1031
(lp1032
I3
a(lp1033
I2271
aaa(lp1034
(lp1035
I4
a(lp1036
I265
aaaasVreference
p1037
(lp1038
(lp1039
I4
a(lp1040
I803
aaasVresult
p1041
(lp1042
(lp1043
I3
a(lp1044
I432
aI1863
aaasVJohn
p1045
(lp1046
(lp1047
I3
a(lp1048
I391
aaasVbest
p1049
(lp1050
(lp1051
I3
a(lp1052
I130
aI1994
aaasVvoyage
p1053
(lp1054
(lp1055
I4
a(lp1056
I20
aaasVsaid
p1057
(lp1058
(lp1059
I3
a(lp1060
I260
aI341
aI958
aI1243
aI1439
aI1599
aI1684
aI2003
aI2006
aI2196
aaa(lp1061
(lp1062
I5
a(lp1063
I664
aaaasVcapacity
p1064
(lp1065
(lp1066
I5
a(lp1067
I201
aI687
aaasVambitions
p1068
(lp1069
(lp1070
I5
a(lp1071
I28
aaasVpropulsion
p1072
(lp1073
(lp1074
I4
a(lp1075
I182
aI261
aI320
aI348
aaasVartificial
p1076
(lp1077
(lp1078
I4
a(lp1079
I628
aaasVfuture
p1080
(lp1081
(lp1082
I3
a(lp1083
I1108
aaasVCourts
p1084
(lp1085
(lp1086
I3
a(lp1087
I72
aaasVdrawn
p1088
(lp1089
(lp1090
I3
a(lp1091
I1515
aI1560
aaasVwe
p1092
(lp1093
(lp1094
I5
a(lp1095
I409
aI689
aaa(lp1096
(lp1097
I6
a(lp1098
I498
aaaasVCentral
p1099
(lp1100
(lp1101
I3
a(lp1102
I110
aaasVnature
p1103
(lp1104
(lp1105
I3
a(lp1106
I1232
aaasVweak
p1107
(lp1108
(lp1109
I3
a(lp1110
I2099
aaasVhowever
p1111
(lp1112
(lp1113
I3
a(lp1114
I1241
aaa(lp1115
(lp1116
I4
a(lp1117
I907
aaaasVEdgar
p1118
(lp1119
(lp1120
I3
a(lp1121
I384
aaasVNASAs
p1122
(lp1123
(lp1124
I4
a(lp1125
I809
aaasVextent
p1126
(lp1127
(lp1128
I3
a(lp1129
I2165
aaasVclues
p1130
(lp1131
(lp1132
I6
a(lp1133
I417
aaasVhundreds
p1134
(lp1135
(lp1136
I3
a(lp1137
I579
aaa(lp1138
(lp1139
I5
a(lp1140
I277
aaaasVimprove
p1141
(lp1142
(lp1143
I5
a(lp1144
I568
aaasVsuggested
p1145
(lp1146
(lp1147
I3
a(lp1148
I158
aaa(lp1149
(lp1150
I5
a(lp1151
I421
aaaasVcountry
p1152
(lp1153
(lp1154
I3
a(lp1155
I182
aaasVconclusions
p1156
(lp1157
(lp1158
I3
a(lp1159
I1512
aaasVWarBoth
p1160
(lp1161
(lp1162
I4
a(lp1163
I175
aaasVagainst
p1164
(lp1165
(lp1166
I6
a(lp1167
I519
aaasVplanned
p1168
(lp1169
(lp1170
I4
a(lp1171
I424
aI665
aaasVrequests
p1172
(lp1173
(lp1174
I3
a(lp1175
I318
aaasVSyrian
p1176
(lp1177
(lp1178
I6
a(lp1179
I103
aaasVasked
p1180
(lp1181
(lp1182
I3
a(lp1183
I2120
aaasVtone
p1184
(lp1185
(lp1186
I3
a(lp1187
I247
aaasVspeak
p1188
(lp1189
(lp1190
I3
a(lp1191
I2086
aI2113
aaasVengines
p1192
(lp1193
(lp1194
I4
a(lp1195
I13
aI570
aaasVbasis
p1196
(lp1197
(lp1198
I3
a(lp1199
I2229
aaasVwarehouses
p1200
(lp1201
(lp1202
I5
a(lp1203
I258
aaasVthree
p1204
(lp1205
(lp1206
I6
a(lp1207
I199
aaasVbeen
p1208
(lp1209
(lp1210
I3
a(lp1211
I1996
aI2279
aaa(lp1212
(lp1213
I6
a(lp1214
I524
aI548
aaaasVbasic
p1215
(lp1216
(lp1217
I3
a(lp1218
I573
aaasVdoorsteps
p1219
(lp1220
(lp1221
I5
a(lp1222
I384
aaasVflexible
p1223
(lp1224
(lp1225
I3
a(lp1226
I1411
aaasVdeviceLawmakers
p1227
(lp1228
(lp1229
I3
a(lp1230
I1276
aaasVdots
p1231
(lp1232
(lp1233
I6
a(lp1234
I460
aaasVlife
p1235
(lp1236
(lp1237
I4
a(lp1238
I208
aaasVVice
p1239
(lp1240
(lp1241
I3
a(lp1242
I1905
aaasVPennsylvania
p1243
(lp1244
(lp1245
I6
a(lp1246
I250
aaasVCA
p1247
(lp1248
(lp1249
I4
a(lp1250
I241
aaasVhas
p1251
(lp1252
(lp1253
I3
a(lp1254
I36
aI758
aI787
aI916
aI957
aI1469
aI1478
aI1505
aI1523
aI2266
aI2278
aaa(lp1255
(lp1256
I4
a(lp1257
I126
aI448
aI767
aaaa(lp1258
(lp1259
I5
a(lp1260
I233
aI291
aI507
aI600
aI618
aI636
aaaa(lp1261
(lp1262
I6
a(lp1263
I47
aI106
aI523
aI547
aaaasVpublicly
p1264
(lp1265
(lp1266
I3
a(lp1267
I2114
aaasVair
p1268
(lp1269
(lp1270
I5
a(lp1271
I15
aaasVaid
p1272
(lp1273
(lp1274
I3
a(lp1275
I1760
aaasVlaunched
p1276
(lp1277
(lp1278
I4
a(lp1279
I168
aI909
aaasVWrits
p1280
(lp1281
(lp1282
I3
a(lp1283
I67
aI770
aI809
aI962
aI989
aI1032
aI1168
aI1405
aI1595
aI1943
aaasVNonetheless
p1284
(lp1285
(lp1286
I4
a(lp1287
I213
aaasVis
p1288
(lp1289
(lp1290
I3
a(lp1291
I117
aI429
aI512
aI539
aI834
aI981
aI1019
aI1206
aI1361
aI1427
aI1462
aI1587
aI1608
aI1650
aI1669
aI1687
aI1762
aI1768
aI1821
aI1835
aI1860
aI2043
aI2081
aI2098
aI2136
aI2150
aI2155
aaa(lp1292
(lp1293
I4
a(lp1294
I65
aI90
aI255
aI283
aI495
aI502
aI556
aI657
aI732
aI781
aI813
aaaa(lp1295
(lp1296
I5
a(lp1297
I1
aI65
aI90
aI305
aI540
aaaa(lp1298
(lp1299
I6
a(lp1300
I164
aI245
aI330
aI442
aaaasVthisApple
p1301
(lp1302
(lp1303
I3
a(lp1304
I213
aaasVexpenses
p1305
(lp1306
(lp1307
I5
a(lp1308
I594
aaasVcant
p1309
(lp1310
(lp1311
I3
a(lp1312
I1309
aaasVin
p1313
(lp1314
(lp1315
I3
a(lp1316
I20
aI54
aI58
aI99
aI103
aI164
aI173
aI180
aI219
aI261
aI336
aI421
aI524
aI592
aI607
aI638
aI651
aI674
aI729
aI744
aI763
aI780
aI832
aI885
aI923
aI967
aI991
aI1009
aI1052
aI1093
aI1106
aI1153
aI1238
aI1328
aI1387
aI1391
aI1497
aI1507
aI1580
aI1589
aI1676
aI1830
aI1893
aI1935
aI2159
aI2225
aI2291
aaa(lp1317
(lp1318
I4
a(lp1319
I99
aI169
aI170
aI239
aI389
aI418
aI433
aI552
aI683
aI778
aI921
aI934
aaaa(lp1320
(lp1321
I5
a(lp1322
I18
aI68
aI79
aI93
aI104
aI193
aI196
aI209
aI499
aI610
aI620
aI643
aI674
aaaa(lp1323
(lp1324
I6
a(lp1325
I91
aI209
aI234
aI272
aI279
aI427
aI461
aI538
aaaasVtrusted
p1326
(lp1327
(lp1328
I3
a(lp1329
I374
aaasVif
p1330
(lp1331
(lp1332
I3
a(lp1333
I657
aI678
aaa(lp1334
(lp1335
I4
a(lp1336
I359
aaaasVsuggest
p1337
(lp1338
(lp1339
I3
a(lp1340
I378
aaasVmake
p1341
(lp1342
(lp1343
I3
a(lp1344
I919
aaa(lp1345
(lp1346
I4
a(lp1347
I44
aI547
aI915
aI951
aaaasVPresident
p1348
(lp1349
(lp1350
I3
a(lp1351
I390
aI1906
aaasVseveral
p1352
(lp1353
(lp1354
I3
a(lp1355
I515
aI1554
aaasVsatellite
p1356
(lp1357
(lp1358
I4
a(lp1359
I932
aaasVInstitute
p1360
(lp1361
(lp1362
I6
a(lp1363
I371
aaasVhand
p1364
(lp1365
(lp1366
I4
a(lp1367
I584
aaasVencrypts
p1368
(lp1369
(lp1370
I3
a(lp1371
I662
aaasVApples
p1372
(lp1373
(lp1374
I3
a(lp1375
I255
aI434
aI1213
aI1781
aI1865
aI2030
aI2167
aaasVkept
p1376
(lp1377
(lp1378
I3
a(lp1379
I1470
aaasV1978
p1380
(lp1381
(lp1382
I4
a(lp1383
I928
aaasVclaims
p1384
(lp1385
(lp1386
I3
a(lp1387
I1782
aaasVthe
p1388
(lp1389
(lp1390
I3
a(lp1391
I3
aI21
aI32
aI44
aI52
aI65
aI71
aI81
aI90
aI96
aI104
aI109
aI125
aI139
aI141
aI150
aI170
aI175
aI191
aI202
aI206
aI217
aI225
aI231
aI242
aI245
aI249
aI262
aI284
aI298
aI302
aI334
aI337
aI357
aI370
aI387
aI396
aI409
aI413
aI422
aI471
aI482
aI485
aI494
aI505
aI509
aI519
aI529
aI541
aI546
aI550
aI558
aI563
aI572
aI585
aI593
aI597
aI601
aI608
aI616
aI628
aI642
aI666
aI676
aI679
aI684
aI705
aI734
aI750
aI756
aI782
aI798
aI807
aI814
aI844
aI860
aI898
aI907
aI920
aI924
aI931
aI943
aI960
aI968
aI975
aI979
aI984
aI987
aI998
aI1010
aI1012
aI1023
aI1027
aI1030
aI1041
aI1065
aI1078
aI1102
aI1107
aI1120
aI1130
aI1166
aI1197
aI1204
aI1218
aI1231
aI1234
aI1249
aI1266
aI1278
aI1286
aI1289
aI1299
aI1316
aI1324
aI1331
aI1335
aI1341
aI1373
aI1380
aI1392
aI1396
aI1403
aI1420
aI1437
aI1448
aI1465
aI1473
aI1482
aI1493
aI1502
aI1565
aI1568
aI1573
aI1581
aI1585
aI1593
aI1600
aI1627
aI1638
aI1685
aI1701
aI1706
aI1733
aI1737
aI1747
aI1772
aI1786
aI1791
aI1817
aI1824
aI1831
aI1842
aI1878
aI1882
aI1885
aI1926
aI1941
aI1950
aI1957
aI1968
aI1974
aI1993
aI2016
aI2019
aI2026
aI2051
aI2055
aI2059
aI2087
aI2093
aI2100
aI2134
aI2146
aI2148
aI2164
aI2188
aI2191
aI2211
aI2214
aI2228
aI2252
aI2260
aI2273
aI2286
aI2292
aaa(lp1392
(lp1393
I4
a(lp1394
I15
aI49
aI62
aI109
aI131
aI138
aI173
aI185
aI189
aI232
aI286
aI312
aI333
aI338
aI398
aI410
aI414
aI422
aI436
aI459
aI471
aI476
aI480
aI487
aI504
aI532
aI543
aI559
aI571
aI578
aI582
aI623
aI696
aI736
aI755
aI764
aI774
aI805
aI826
aI880
aI901
aaaa(lp1395
(lp1396
I5
a(lp1397
I19
aI60
aI66
aI91
aI154
aI194
aI205
aI210
aI230
aI246
aI250
aI316
aI391
aI413
aI423
aI454
aI500
aI596
aI614
aI621
aI634
aI667
aaaa(lp1398
(lp1399
I6
a(lp1400
I3
aI10
aI15
aI37
aI63
aI74
aI92
aI99
aI117
aI135
aI154
aI158
aI179
aI206
aI212
aI220
aI227
aI240
aI258
aI263
aI282
aI290
aI305
aI310
aI326
aI369
aI387
aI395
aI403
aI414
aI420
aI428
aI456
aI504
aI510
aaaasVleft
p1401
(lp1402
(lp1403
I3
a(lp1404
I1333
aaasVjust
p1405
(lp1406
(lp1407
I4
a(lp1408
I804
aaa(lp1409
(lp1410
I5
a(lp1411
I678
aaaasV\u201cAt
p1412
(lp1413
(lp1414
I5
a(lp1415
I217
aaasVdefendantAn
p1416
(lp1417
(lp1418
I3
a(lp1419
I1969
aaasVlaptop
p1420
(lp1421
(lp1422
I3
a(lp1423
I1954
aaasVcrewed
p1424
(lp1425
(lp1426
I4
a(lp1427
I513
aaasVfighters
p1428
(lp1429
(lp1430
I6
a(lp1431
I69
aI75
aI146
aI163
aI176
aI399
aaasVfarther
p1432
(lp1433
(lp1434
I4
a(lp1435
I454
aaasVhuman
p1436
(lp1437
(lp1438
I4
a(lp1439
I211
aaasVfacts
p1440
(lp1441
(lp1442
I3
a(lp1443
I210
aI1457
aaasVadding
p1444
(lp1445
(lp1446
I5
a(lp1447
I223
aI324
aaasVinstance
p1448
(lp1449
(lp1450
I4
a(lp1451
I406
aaasVassassination
p1452
(lp1453
(lp1454
I3
a(lp1455
I388
aaasVhad
p1456
(lp1457
(lp1458
I3
a(lp1459
I1257
aaa(lp1460
(lp1461
I4
a(lp1462
I161
aI585
aaaa(lp1463
(lp1464
I5
a(lp1465
I185
aI695
aaaasVcountrys
p1466
(lp1467
(lp1468
I4
a(lp1469
I132
aaasVinnocent
p1470
(lp1471
(lp1472
I4
a(lp1473
I751
aaasVtechnological
p1474
(lp1475
(lp1476
I3
a(lp1477
I1713
aaasVNews
p1478
(lp1479
(lp1480
I6
a(lp1481
I122
aI203
aaasVsave
p1482
(lp1483
(lp1484
I5
a(lp1485
I398
aaasVOrenstein
p1486
(lp1487
(lp1488
I3
a(lp1489
I1161
aI1242
aaasVJames
p1490
(lp1491
(lp1492
I3
a(lp1493
I1160
aaa(lp1494
(lp1495
I4
a(lp1496
I233
aaaasVjudge
p1497
(lp1498
(lp1499
I3
a(lp1500
I2287
aaasVreplace
p1501
(lp1502
(lp1503
I5
a(lp1504
I625
aaasVgift
p1505
(lp1506
(lp1507
I6
a(lp1508
I345
aaasV56
p1509
(lp1510
(lp1511
I6
a(lp1512
I293
aaasV51
p1513
(lp1514
(lp1515
I5
a(lp1516
I187
aaasVtheyre
p1517
(lp1518
(lp1519
I5
a(lp1520
I362
aaasVspecific
p1521
(lp1522
(lp1523
I3
a(lp1524
I468
aI1456
aI1752
aaa(lp1525
(lp1526
I4
a(lp1527
I592
aaaa(lp1528
(lp1529
I5
a(lp1530
I369
aaaasVsteps
p1531
(lp1532
(lp1533
I3
a(lp1534
I1640
aaasVsecurity
p1535
(lp1536
(lp1537
I3
a(lp1538
I4
aI343
aI469
aI574
aI1091
aI2200
aaa(lp1539
(lp1540
I6
a(lp1541
I12
aI34
aI284
aI347
aaaasVattorney
p1542
(lp1543
(lp1544
I3
a(lp1545
I588
aI1576
aI1601
aI1970
aaasVright
p1546
(lp1547
(lp1548
I3
a(lp1549
I2050
aaasVold
p1550
(lp1551
(lp1552
I4
a(lp1553
I55
aaasVpeople
p1554
(lp1555
(lp1556
I3
a(lp1557
I560
aI2065
aaasVSystem
p1558
(lp1559
(lp1560
I4
a(lp1561
I562
aI812
aaasVunrivaled
p1562
(lp1563
(lp1564
I5
a(lp1565
I508
aaasVdoorstep
p1566
(lp1567
(lp1568
I5
a(lp1569
I266
aaasVUPS
p1570
(lp1571
(lp1572
I5
a(lp1573
I477
aI534
aaasVfor
p1574
(lp1575
(lp1576
I3
a(lp1577
I108
aI319
aI356
aI631
aI699
aI880
aI1402
aI1464
aI1492
aI1577
aI1641
aI1810
aI1876
aI1903
aI1971
aI1976
aI2029
aI2218
aI2281
aaa(lp1578
(lp1579
I4
a(lp1580
I108
aI198
aI210
aI236
aI366
aI386
aI397
aI421
aI508
aI568
aI618
aI651
aI659
aI699
aI709
aI796
aaaa(lp1581
(lp1582
I5
a(lp1583
I54
aI133
aI263
aI348
aI428
aI542
aI551
aaaa(lp1584
(lp1585
I6
a(lp1586
I322
aI346
aI372
aI416
aI446
aI528
aaaasVindividuals
p1587
(lp1588
(lp1589
I3
a(lp1590
I583
aaa(lp1591
(lp1592
I6
a(lp1593
I243
aaaasVMagistrate
p1594
(lp1595
(lp1596
I3
a(lp1597
I448
aI1158
aaasVHe
p1598
(lp1599
(lp1600
I3
a(lp1601
I2004
aaasVTetra
p1602
(lp1603
(lp1604
I4
a(lp1605
I387
aaasVburn
p1606
(lp1607
(lp1608
I4
a(lp1609
I107
aI299
aI336
aaasVNear
p1610
(lp1611
(lp1612
I6
a(lp1613
I373
aaasVfastestgrowing
p1614
(lp1615
(lp1616
I5
a(lp1617
I593
aaasVFirst
p1618
(lp1619
(lp1620
I3
a(lp1621
I2048
aI2095
aaasVinsinuations
p1622
(lp1623
(lp1624
I3
a(lp1625
I358
aaasVspaceships
p1626
(lp1627
(lp1628
I4
a(lp1629
I603
aaasVinnuendo
p1630
(lp1631
(lp1632
I3
a(lp1633
I160
aI291
aaasVmonths
p1634
(lp1635
(lp1636
I4
a(lp1637
I24
aaa(lp1638
(lp1639
I6
a(lp1640
I200
aaaasVensure
p1641
(lp1642
(lp1643
I3
a(lp1644
I1459
aaasVlogistical
p1645
(lp1646
(lp1647
I5
a(lp1648
I86
aI112
aI443
aaasVraised
p1649
(lp1650
(lp1651
I3
a(lp1652
I8
aaasVbeneficial
p1653
(lp1654
(lp1655
I5
a(lp1656
I121
aaasVdown
p1657
(lp1658
(lp1659
I3
a(lp1660
I2242
aaa(lp1661
(lp1662
I6
a(lp1663
I193
aaaasVAaron
p1664
(lp1665
(lp1666
I3
a(lp1667
I1907
aaasVdoctrine
p1668
(lp1669
(lp1670
I3
a(lp1671
I523
aaasVfederal
p1672
(lp1673
(lp1674
I6
a(lp1675
I296
aaasVmethods
p1676
(lp1677
(lp1678
I4
a(lp1679
I349
aI441
aaasVISIS
p1680
(lp1681
(lp1682
I6
a(lp1683
I20
aI68
aI145
aI162
aI182
aI216
aI328
aI354
aI388
aaasVZwillinger
p1684
(lp1685
(lp1686
I3
a(lp1687
I590
aaasVsupport
p1688
(lp1689
(lp1690
I3
a(lp1691
I212
aI764
aI1989
aI2025
aI2209
aaa(lp1692
(lp1693
I4
a(lp1694
I209
aaaa(lp1695
(lp1696
I5
a(lp1697
I204
aI491
aaaasVlegislation
p1698
(lp1699
(lp1700
I3
a(lp1701
I728
aI1570
aaasVstuck
p1702
(lp1703
(lp1704
I4
a(lp1705
I557
aaasVauthorized
p1706
(lp1707
(lp1708
I3
a(lp1709
I1072
aaasVImpulse
p1710
(lp1711
(lp1712
I4
a(lp1713
I356
aaasV\u201cWhen
p1714
(lp1715
(lp1716
I6
a(lp1717
I554
aaasVwas
p1718
(lp1719
(lp1720
I3
a(lp1721
I163
aI185
aI227
aI236
aI279
aI870
aI902
aaa(lp1722
(lp1723
I6
a(lp1724
I232
aaaasVlaunching
p1725
(lp1726
(lp1727
I4
a(lp1728
I119
aI157
aI536
aaasVCongratulations
p1729
(lp1730
(lp1731
I4
a(lp1732
I46
aaasV\u201cThis
p1733
(lp1734
(lp1735
I5
a(lp1736
I402
aaasVoffer
p1737
(lp1738
(lp1739
I5
a(lp1740
I417
aI464
aaasVheat
p1741
(lp1742
(lp1743
I4
a(lp1744
I290
aI297
aaasVcatch22
p1745
(lp1746
(lp1747
I4
a(lp1748
I450
aaasVremoved
p1749
(lp1750
(lp1751
I3
a(lp1752
I2014
aaasVanalyst
p1753
(lp1754
(lp1755
I5
a(lp1756
I151
aaa(lp1757
(lp1758
I6
a(lp1759
I367
aaaasV220
p1760
(lp1761
(lp1762
I5
a(lp1763
I525
aaasVcounsel
p1764
(lp1765
(lp1766
I3
a(lp1767
I257
aaasVversions
p1768
(lp1769
(lp1770
I4
a(lp1771
I595
aaasVcritical
p1772
(lp1773
(lp1774
I5
a(lp1775
I200
aaasVprematurely
p1776
(lp1777
(lp1778
I4
a(lp1779
I177
aaasVdecrypt
p1780
(lp1781
(lp1782
I3
a(lp1783
I501
aI625
aI708
aI753
aI1184
aI1489
aI1880
aaasVfattened
p1784
(lp1785
(lp1786
I4
a(lp1787
I206
aaasVdecrypting
p1788
(lp1789
(lp1790
I3
a(lp1791
I675
aaasVtelecoms
p1792
(lp1793
(lp1794
I3
a(lp1795
I646
aaasVship
p1796
(lp1797
(lp1798
I4
a(lp1799
I250
aaasVtrip
p1800
(lp1801
(lp1802
I4
a(lp1803
I16
aI60
aI110
aI624
aaasVphysical
p1804
(lp1805
(lp1806
I6
a(lp1807
I532
aI540
aaasVradically
p1808
(lp1809
(lp1810
I4
a(lp1811
I443
aaasVno
p1812
(lp1813
(lp1814
I3
a(lp1815
I209
aI1201
aI1292
aI1651
aaa(lp1816
(lp1817
I4
a(lp1818
I956
aaaa(lp1819
(lp1820
I5
a(lp1821
I679
aaaasVwhen
p1822
(lp1823
(lp1824
I3
a(lp1825
I2078
aaa(lp1826
(lp1827
I4
a(lp1828
I154
aaaa(lp1829
(lp1830
I5
a(lp1831
I556
aaaasVhanded
p1832
(lp1833
(lp1834
I5
a(lp1835
I372
aaasVdigital
p1836
(lp1837
(lp1838
I6
a(lp1839
I534
aaasVtest
p1840
(lp1841
(lp1842
I4
a(lp1843
I876
aaasV\u201cFor
p1844
(lp1845
(lp1846
I5
a(lp1847
I531
aaasVpicture
p1848
(lp1849
(lp1850
I6
a(lp1851
I494
aaasVintent
p1852
(lp1853
(lp1854
I3
a(lp1855
I1378
aI1620
aaasVauthorities
p1856
(lp1857
(lp1858
I3
a(lp1859
I1720
aaasVbillion
p1860
(lp1861
(lp1862
I4
a(lp1863
I771
aI822
aaa(lp1864
(lp1865
I5
a(lp1866
I584
aaaasVfaster
p1867
(lp1868
(lp1869
I4
a(lp1870
I452
aaa(lp1871
(lp1872
I5
a(lp1873
I265
aaaasVassume
p1874
(lp1875
(lp1876
I3
a(lp1877
I1376
aaasVtogether
p1878
(lp1879
(lp1880
I6
a(lp1881
I487
aaasVtime
p1882
(lp1883
(lp1884
I4
a(lp1885
I29
aI506
aaa(lp1886
(lp1887
I5
a(lp1888
I598
aI607
aaaa(lp1889
(lp1890
I6
a(lp1891
I505
aaaasVserious
p1892
(lp1893
(lp1894
I3
a(lp1895
I410
aaasVprecedent
p1896
(lp1897
(lp1898
I3
a(lp1899
I145
aaasVdecelerate
p1900
(lp1901
(lp1902
I4
a(lp1903
I641
aaasVglobal
p1904
(lp1905
(lp1906
I5
a(lp1907
I493
aaasVfocus
p1908
(lp1909
(lp1910
I3
a(lp1911
I296
aI407
aaasVsupplement
p1912
(lp1913
(lp1914
I5
a(lp1915
I656
aaasVtenable
p1916
(lp1917
(lp1918
I3
a(lp1919
I1556
aaasVasking
p1920
(lp1921
(lp1922
I3
a(lp1923
I596
aI1189
aI1248
aaasVBurr
p1924
(lp1925
(lp1926
I3
a(lp1927
I1892
aI1908
aaasVmust
p1928
(lp1929
(lp1930
I3
a(lp1931
I647
aaasVoversight
p1932
(lp1933
(lp1934
I3
a(lp1935
I1314
aaasVSky
p1936
(lp1937
(lp1938
I6
a(lp1939
I121
aI202
aaasVdenied
p1940
(lp1941
(lp1942
I5
a(lp1943
I619
aaa(lp1944
(lp1945
I6
a(lp1946
I539
aaaasVTech
p1947
(lp1948
(lp1949
I4
a(lp1950
I388
aaasVtanks
p1951
(lp1952
(lp1953
I4
a(lp1954
I567
aaasVemphasized
p1955
(lp1956
(lp1957
I3
a(lp1958
I1506
aaasVgovernments
p1959
(lp1960
(lp1961
I3
a(lp1962
I1013
aI1066
aI2027
aI2274
aaasVlevel
p1963
(lp1964
(lp1965
I6
a(lp1966
I455
aaasVdid
p1967
(lp1968
(lp1969
I3
a(lp1970
I1678
aaa(lp1971
(lp1972
I4
a(lp1973
I263
aaaasVdie
p1974
(lp1975
(lp1976
I4
a(lp1977
I53
aaasVrights
p1978
(lp1979
(lp1980
I3
a(lp1981
I138
aaasVproposals
p1982
(lp1983
(lp1984
I3
a(lp1985
I1530
aaasVsolved
p1986
(lp1987
(lp1988
I4
a(lp1989
I147
aaasVpropellant
p1990
(lp1991
(lp1992
I4
a(lp1993
I339
aaasVprevent
p1994
(lp1995
(lp1996
I3
a(lp1997
I1716
aaa(lp1998
(lp1999
I6
a(lp2000
I357
aaaasVspiritual
p2001
(lp2002
(lp2003
I4
a(lp2004
I520
aaasVunexpected
p2005
(lp2006
(lp2007
I6
a(lp2008
I344
aaasVsays
p2009
(lp2010
(lp2011
I3
a(lp2012
I2
aI508
aI774
aI1648
aaa(lp2013
(lp2014
I4
a(lp2015
I226
aI380
aI739
aI868
aaaa(lp2016
(lp2017
I5
a(lp2018
I8
aI62
aI212
aI351
aI478
aI530
aaaa(lp2019
(lp2020
I6
a(lp2021
I173
aI362
aI449
aI506
aI553
aaaasVsign
p2022
(lp2023
(lp2024
I3
a(lp2025
I1322
aI2038
aI2244
aaa(lp2026
(lp2027
I5
a(lp2028
I131
aaaasVIssuing
p2029
(lp2030
(lp2031
I3
a(lp2032
I1365
aaasVsaidIn
p2033
(lp2034
(lp2035
I3
a(lp2036
I1148
aaasVRed
p2037
(lp2038
(lp2039
I4
a(lp2040
I63
aaasVcargo
p2041
(lp2042
(lp2043
I5
a(lp2044
I16
aaasVadds
p2045
(lp2046
(lp2047
I6
a(lp2048
I508
aaasVBruce
p2049
(lp2050
(lp2051
I3
a(lp2052
I258
aaasVassistance
p2053
(lp2054
(lp2055
I3
a(lp2056
I779
aI824
aI853
aI899
aI1003
aI1018
aI1182
aI1235
aaasVgoes
p2057
(lp2058
(lp2059
I4
a(lp2060
I307
aI311
aaasVDuring
p2061
(lp2062
(lp2063
I4
a(lp2064
I27
aaasVground
p2065
(lp2066
(lp2067
I3
a(lp2068
I1535
aaasVcommunicationsBut
p2069
(lp2070
(lp2071
I3
a(lp2072
I755
aaasVfilled
p2073
(lp2074
(lp2075
I6
a(lp2076
I87
aaasVApplicants
p2077
(lp2078
(lp2079
I3
a(lp2080
I2247
aaasVsupporting
p2081
(lp2082
(lp2083
I5
a(lp2084
I220
aI321
aaasVtransportation
p2085
(lp2086
(lp2087
I5
a(lp2088
I519
aaasVguardian
p2089
(lp2090
(lp2091
I3
a(lp2092
I92
aaasVclerk
p2093
(lp2094
(lp2095
I3
a(lp2096
I1901
aI1927
aaasV31000
p2097
(lp2098
(lp2099
I6
a(lp2100
I198
aaasVgroups
p2101
(lp2102
(lp2103
I5
a(lp2104
I366
aaa(lp2105
(lp2106
I6
a(lp2107
I155
aaaasValone
p2108
(lp2109
(lp2110
I3
a(lp2111
I1726
aaa(lp2112
(lp2113
I5
a(lp2114
I555
aaaasValong
p2115
(lp2116
(lp2117
I6
a(lp2118
I115
aaasVappears
p2119
(lp2120
(lp2121
I6
a(lp2122
I51
aI137
aI300
aI337
aaasVsending
p2123
(lp2124
(lp2125
I4
a(lp2126
I509
aaasVthirty
p2127
(lp2128
(lp2129
I3
a(lp2130
I265
aaasVexpressly
p2131
(lp2132
(lp2133
I3
a(lp2134
I1480
aaasVburdensome
p2135
(lp2136
(lp2137
I3
a(lp2138
I905
aI939
aaasVAbdel
p2139
(lp2140
(lp2141
I6
a(lp2142
I224
aaasVinference
p2143
(lp2144
(lp2145
I3
a(lp2146
I1566
aaasVJustice
p2147
(lp2148
(lp2149
I3
a(lp2150
I544
aI1494
aI1896
aaasVemployer
p2151
(lp2152
(lp2153
I3
a(lp2154
I2239
aaasVmarket
p2155
(lp2156
(lp2157
I3
a(lp2158
I440
aI1871
aaasV2015\u201cThese
p2159
(lp2160
(lp2161
I5
a(lp2162
I197
aaasVopposes
p2163
(lp2164
(lp2165
I3
a(lp2166
I2042
aaasVworking
p2167
(lp2168
(lp2169
I3
a(lp2170
I1902
aaa(lp2171
(lp2172
I4
a(lp2173
I719
aaaasVby
p2174
(lp2175
(lp2176
I3
a(lp2177
I9
aI491
aI1022
aI1073
aI1334
aI2130
aaa(lp2178
(lp2179
I4
a(lp2180
I122
aI152
aI291
aI327
aI788
aI878
aI889
aaaa(lp2181
(lp2182
I5
a(lp2183
I367
aaaa(lp2184
(lp2185
I6
a(lp2186
I386
aaaasVEarthCalling
p2187
(lp2188
(lp2189
I4
a(lp2190
I650
aaasVterritories
p2191
(lp2192
(lp2193
I5
a(lp2194
I528
aaasVscope
p2195
(lp2196
(lp2197
I5
a(lp2198
I509
aaasVtoday
p2199
(lp2200
(lp2201
I3
a(lp2202
I1390
aI1500
aI1583
aI1705
aaasVF
p2203
(lp2204
(lp2205
I3
a(lp2206
I392
aaasVcases
p2207
(lp2208
(lp2209
I3
a(lp2210
I801
aI1509
aI2009
aaasVeffort
p2211
(lp2212
(lp2213
I3
a(lp2214
I232
aI327
aI1855
aaa(lp2215
(lp2216
I5
a(lp2217
I71
aI96
aaaasVriders
p2218
(lp2219
(lp2220
I4
a(lp2221
I212
aaasVorganizations
p2222
(lp2223
(lp2224
I6
a(lp2225
I18
aaasVanything
p2226
(lp2227
(lp2228
I3
a(lp2229
I1040
aaasVdialed
p2230
(lp2231
(lp2232
I3
a(lp2233
I828
aaasVGerman
p2234
(lp2235
(lp2236
I6
a(lp2237
I124
aI128
aaasVcan
p2238
(lp2239
(lp2240
I3
a(lp2241
I1035
aI1081
aI1727
aI1735
aI1741
aI1755
aI1849
aI2220
aaa(lp2242
(lp2243
I4
a(lp2244
I78
aI843
aaaa(lp2245
(lp2246
I5
a(lp2247
I387
aI397
aaaa(lp2248
(lp2249
I6
a(lp2250
I8
aaaasVgrowing
p2251
(lp2252
(lp2253
I5
a(lp2254
I124
aaasVclaim
p2255
(lp2256
(lp2257
I3
a(lp2258
I2097
aaasVFederal
p2259
(lp2260
(lp2261
I3
a(lp2262
I447
aaasV1980s
p2263
(lp2264
(lp2265
I4
a(lp2266
I190
aaasVhydrogen
p2267
(lp2268
(lp2269
I4
a(lp2270
I300
aaasVwrite
p2271
(lp2272
(lp2273
I3
a(lp2274
I1085
aI1115
aI1660
aI2036
aI2145
aaasVPym
p2275
(lp2276
(lp2277
I3
a(lp2278
I451
aaasVsworn
p2279
(lp2280
(lp2281
I3
a(lp2282
I2084
aaasVmap
p2283
(lp2284
(lp2285
I6
a(lp2286
I393
aaasVmay
p2287
(lp2288
(lp2289
I3
a(lp2290
I188
aI1558
aaa(lp2291
(lp2292
I4
a(lp2293
I753
aaaa(lp2294
(lp2295
I5
a(lp2296
I426
aaaa(lp2297
(lp2298
I6
a(lp2299
I21
aI424
aI472
aaaasVapplications
p2300
(lp2301
(lp2302
I4
a(lp2303
I671
aaasVmembership
p2304
(lp2305
(lp2306
I5
a(lp2307
I184
aaasVproduce
p2308
(lp2309
(lp2310
I4
a(lp2311
I325
aaasVdesigned
p2312
(lp2313
(lp2314
I3
a(lp2315
I29
aaasVMartin
p2316
(lp2317
(lp2318
I4
a(lp2319
I234
aaasVsuch
p2320
(lp2321
(lp2322
I3
a(lp2323
I1356
aI1562
aaa(lp2324
(lp2325
I6
a(lp2326
I218
aaaasVrevealed
p2327
(lp2328
(lp2329
I5
a(lp2330
I180
aI575
aaasVFederation
p2331
(lp2332
(lp2333
I4
a(lp2334
I882
aaasVbranches
p2335
(lp2336
(lp2337
I3
a(lp2338
I153
aaasVBurning
p2339
(lp2340
(lp2341
I4
a(lp2342
I305
aaasVutero
p2343
(lp2344
(lp2345
I4
a(lp2346
I419
aaasVso
p2347
(lp2348
(lp2349
I3
a(lp2350
I1258
aI1731
aI1743
aI1851
aI1922
aI2185
aaa(lp2351
(lp2352
I4
a(lp2353
I554
aI679
aaaasVsilence
p2354
(lp2355
(lp2356
I3
a(lp2357
I1518
aaasVpointed
p2358
(lp2359
(lp2360
I3
a(lp2361
I604
aaasVyears
p2362
(lp2363
(lp2364
I3
a(lp2365
I266
aI1982
aaa(lp2366
(lp2367
I5
a(lp2368
I231
aaaasVcourse
p2369
(lp2370
(lp2371
I3
a(lp2372
I879
aaasVargued
p2373
(lp2374
(lp2375
I3
a(lp2376
I1398
aaasVstill
p2377
(lp2378
(lp2379
I3
a(lp2380
I1247
aI1283
aaasVgroup
p2381
(lp2382
(lp2383
I6
a(lp2384
I40
aI101
aI521
aaasVhow
p2385
(lp2386
(lp2387
I3
a(lp2388
I2143
aaa(lp2389
(lp2390
I4
a(lp2391
I367
aaaasVforms
p2392
(lp2393
(lp2394
I6
a(lp2395
I90
aI287
aaasVcoordinated
p2396
(lp2397
(lp2398
I5
a(lp2399
I240
aaasVmain
p2400
(lp2401
(lp2402
I4
a(lp2403
I697
aaasVdecryption
p2404
(lp2405
(lp2406
I3
a(lp2407
I685
aI722
aI1951
aI1960
aaasVthereby
p2408
(lp2409
(lp2410
I3
a(lp2411
I500
aaasVcivilian
p2412
(lp2413
(lp2414
I4
a(lp2415
I730
aaasVconversations
p2416
(lp2417
(lp2418
I3
a(lp2419
I1134
aaasV\u2018police
p2420
(lp2421
(lp2422
I3
a(lp2423
I78
aaasV\u201cApple
p2424
(lp2425
(lp2426
I3
a(lp2427
I1725
aI1820
aaasVcompelled
p2428
(lp2429
(lp2430
I3
a(lp2431
I865
aI912
aI1037
aI1757
aI2111
aaasVhalf
p2432
(lp2433
(lp2434
I4
a(lp2435
I501
aaasVnot
p2436
(lp2437
(lp2438
I3
a(lp2439
I118
aI613
aI682
aI690
aI703
aI903
aI937
aI965
aI973
aI1071
aI1171
aI1262
aI1428
aI1479
aI1763
aI1924
aI1963
aI2075
aI2106
aI2156
aI2206
aaa(lp2440
(lp2441
I4
a(lp2442
I2
aI10
aI114
aI135
aI218
aI223
aI264
aI529
aI749
aI899
aI913
aI950
aaaasVholidaysAnd
p2443
(lp2444
(lp2445
I5
a(lp2446
I615
aaasVnow
p2447
(lp2448
(lp2449
I5
a(lp2450
I2
aaasVkilled
p2451
(lp2452
(lp2453
I6
a(lp2454
I233
aaasVpossess
p2455
(lp2456
(lp2457
I3
a(lp2458
I683
aaasVwont
p2459
(lp2460
(lp2461
I3
a(lp2462
I200
aaa(lp2463
(lp2464
I4
a(lp2465
I886
aaaa(lp2466
(lp2467
I6
a(lp2468
I464
aaaasVJunaid
p2469
(lp2470
(lp2471
I6
a(lp2472
I229
aaasV\u201cPrematurely
p2473
(lp2474
(lp2475
I4
a(lp2476
I191
aaasVshippers
p2477
(lp2478
(lp2479
I5
a(lp2480
I78
aI103
aaasVBlaze
p2481
(lp2482
(lp2483
I6
a(lp2484
I254
aaasVsquare
p2485
(lp2486
(lp2487
I4
a(lp2488
I943
aaasVsignificantly
p2489
(lp2490
(lp2491
I4
a(lp2492
I715
aaasVchallenges
p2493
(lp2494
(lp2495
I4
a(lp2496
I140
aI151
aaasVunlock
p2497
(lp2498
(lp2499
I3
a(lp2500
I1178
aI1273
aI1306
aI1372
aaasVyear
p2501
(lp2502
(lp2503
I4
a(lp2504
I498
aaa(lp2505
(lp2506
I6
a(lp2507
I271
aaaasVtried
p2508
(lp2509
(lp2510
I3
a(lp2511
I917
aaasVhacker
p2512
(lp2513
(lp2514
I6
a(lp2515
I228
aaasVultimately
p2516
(lp2517
(lp2518
I3
a(lp2519
I857
aaasVspace
p2520
(lp2521
(lp2522
I4
a(lp2523
I403
aI661
aI737
aI800
aI918
aaa(lp2524
(lp2525
I6
a(lp2526
I541
aI546
aaaasVprotections
p2527
(lp2528
(lp2529
I3
a(lp2530
I470
aaasVchemically
p2531
(lp2532
(lp2533
I4
a(lp2534
I18
aI511
aaasVmillion
p2535
(lp2536
(lp2537
I4
a(lp2538
I793
aaa(lp2539
(lp2540
I5
a(lp2541
I161
aI164
aaaa(lp2542
(lp2543
I6
a(lp2544
I294
aaaasVcomplicated
p2545
(lp2546
(lp2547
I4
a(lp2548
I225
aaasVsaysSome
p2549
(lp2550
(lp2551
I5
a(lp2552
I419
aaasVdiscussing
p2553
(lp2554
(lp2555
I5
a(lp2556
I666
aaasVmodest
p2557
(lp2558
(lp2559
I3
a(lp2560
I427
aI1858
aaasVmotion
p2561
(lp2562
(lp2563
I3
a(lp2564
I595
aaasVthing
p2565
(lp2566
(lp2567
I4
a(lp2568
I245
aI867
aaasVplace
p2569
(lp2570
(lp2571
I6
a(lp2572
I481
aaasVroutes
p2573
(lp2574
(lp2575
I6
a(lp2576
I396
aaasVthink
p2577
(lp2578
(lp2579
I3
a(lp2580
I271
aaa(lp2581
(lp2582
I4
a(lp2583
I76
aI745
aaaasVfirst
p2584
(lp2585
(lp2586
I4
a(lp2587
I50
aaasVsprawling
p2588
(lp2589
(lp2590
I5
a(lp2591
I85
aI111
aaasVphoneAs
p2592
(lp2593
(lp2594
I3
a(lp2595
I1875
aaasVone
p2596
(lp2597
(lp2598
I3
a(lp2599
I492
aI796
aI1822
aI2258
aaa(lp2600
(lp2601
I4
a(lp2602
I25
aI257
aI308
aI329
aI407
aaaa(lp2603
(lp2604
I5
a(lp2605
I548
aI588
aaaa(lp2606
(lp2607
I6
a(lp2608
I30
aaaasVlong
p2609
(lp2610
(lp2611
I3
a(lp2612
I896
aI2186
aaa(lp2613
(lp2614
I4
a(lp2615
I799
aaaasVcarry
p2616
(lp2617
(lp2618
I3
a(lp2619
I1617
aaa(lp2620
(lp2621
I4
a(lp2622
I608
aaaasVimpossible
p2623
(lp2624
(lp2625
I4
a(lp2626
I67
aaasVmessage
p2627
(lp2628
(lp2629
I3
a(lp2630
I2162
aaasVphonetheres
p2631
(lp2632
(lp2633
I3
a(lp2634
I1200
aaasVengineer
p2635
(lp2636
(lp2637
I4
a(lp2638
I385
aaasVgiven
p2639
(lp2640
(lp2641
I3
a(lp2642
I1481
aaasVofficials
p2643
(lp2644
(lp2645
I6
a(lp2646
I126
aaasVsilent
p2647
(lp2648
(lp2649
I3
a(lp2650
I1471
aaasVunduly
p2651
(lp2652
(lp2653
I3
a(lp2654
I904
aaasVBurrs
p2655
(lp2656
(lp2657
I3
a(lp2658
I1918
aaasVindicate
p2659
(lp2660
(lp2661
I3
a(lp2662
I1349
aaasVlobbing
p2663
(lp2664
(lp2665
I3
a(lp2666
I400
aaasVway
p2667
(lp2668
(lp2669
I3
a(lp2670
I1095
aaa(lp2671
(lp2672
I4
a(lp2673
I26
aaaasVallegedly
p2674
(lp2675
(lp2676
I6
a(lp2677
I48
aaasVthat
p2678
(lp2679
(lp2680
I3
a(lp2681
I34
aI128
aI161
aI181
aI186
aI198
aI230
aI278
aI306
aI369
aI379
aI465
aI525
aI534
aI555
aI606
aI640
aI670
aI731
aI747
aI802
aI812
aI859
aI929
aI959
aI1109
aI1165
aI1216
aI1239
aI1244
aI1255
aI1291
aI1323
aI1350
aI1384
aI1399
aI1460
aI1467
aI1501
aI1510
aI1547
aI1567
aI1584
aI1624
aI1643
aI1653
aI1662
aI1671
aI1715
aI1732
aI1783
aI1899
aI1920
aI1940
aI1956
aI2007
aI2032
aI2040
aI2054
aI2071
aI2125
aI2133
aI2153
aI2166
aI2197
aI2234
aI2251
aaa(lp2682
(lp2683
I4
a(lp2684
I95
aI125
aI296
aI371
aI856
aaaa(lp2685
(lp2686
I5
a(lp2687
I23
aI181
aI422
aI521
aI539
aI638
aI688
aaaa(lp2688
(lp2689
I6
a(lp2690
I31
aI113
aI134
aI174
aI205
aI261
aI423
aI463
aI483
aI497
aI509
aI522
aaaasVsurges
p2691
(lp2692
(lp2693
I5
a(lp2694
I609
aaasV$3000
p2695
(lp2696
(lp2697
I4
a(lp2698
I538
aaasVthan
p2699
(lp2700
(lp2701
I3
a(lp2702
I332
aI1837
aI2264
aaa(lp2703
(lp2704
I4
a(lp2705
I137
aaaa(lp2706
(lp2707
I5
a(lp2708
I524
aaaasVnuclearpowered
p2709
(lp2710
(lp2711
I4
a(lp2712
I930
aaasVtelevision
p2713
(lp2714
(lp2715
I6
a(lp2716
I119
aaasV15
p2717
(lp2718
(lp2719
I3
a(lp2720
I2269
aaa(lp2721
(lp2722
I4
a(lp2723
I770
aI821
aaaasV18
p2724
(lp2725
(lp2726
I4
a(lp2727
I23
aaasVrequire
p2728
(lp2729
(lp2730
I3
a(lp2731
I848
aI2237
aaasV$18
p2732
(lp2733
(lp2734
I5
a(lp2735
I583
aaasVspokeswoman
p2736
(lp2737
(lp2738
I5
a(lp2739
I214
aaasVprotected
p2740
(lp2741
(lp2742
I3
a(lp2743
I754
aI1275
aaasVwere
p2744
(lp2745
(lp2746
I3
a(lp2747
I1246
aI1352
aaa(lp2748
(lp2749
I4
a(lp2750
I196
aI575
aaaa(lp2751
(lp2752
I6
a(lp2753
I501
aaaasVpoisoning
p2754
(lp2755
(lp2756
I4
a(lp2757
I35
aaasVand
p2758
(lp2759
(lp2760
I3
a(lp2761
I5
aI11
aI80
aI136
aI146
aI149
aI290
aI292
aI323
aI354
aI405
aI439
aI499
aI517
aI531
aI545
aI557
aI575
aI664
aI892
aI971
aI1006
aI1034
aI1075
aI1135
aI1277
aI1288
aI1410
aI1452
aI1477
aI1675
aI1739
aI1826
aI1833
aI1870
aI2023
aI2037
aI2083
aI2090
aI2175
aaa(lp2762
(lp2763
I4
a(lp2764
I36
aI102
aI294
aI393
aI499
aI563
aI573
aI613
aI646
aI780
aI860
aI919
aaaa(lp2765
(lp2766
I5
a(lp2767
I143
aI190
aI248
aI283
aI295
aI315
aI371
aI408
aI487
aI496
aI512
aI527
aI567
aI592
aaaa(lp2768
(lp2769
I6
a(lp2770
I80
aI123
aI184
aI191
aI226
aI288
aI314
aI333
aI349
aI356
aI408
aI533
aI542
aaaasVunsubstantiated
p2771
(lp2772
(lp2773
I3
a(lp2774
I326
aaasVCourt
p2775
(lp2776
(lp2777
I3
a(lp2778
I107
aI856
aI1504
aI1522
aI2216
aaasVinvestors
p2779
(lp2780
(lp2781
I5
a(lp2782
I673
aaasVargument
p2783
(lp2784
(lp2785
I3
a(lp2786
I922
aI1466
aI1991
aaasVsay
p2787
(lp2788
(lp2789
I3
a(lp2790
I2069
aaa(lp2791
(lp2792
I4
a(lp2793
I285
aaaasVconspiracy
p2794
(lp2795
(lp2796
I3
a(lp2797
I376
aaasVcommunicationsMore
p2798
(lp2799
(lp2800
I3
a(lp2801
I709
aaasVany
p2802
(lp2803
(lp2804
I3
a(lp2805
I1015
aI2161
aaa(lp2806
(lp2807
I4
a(lp2808
I30
aaaa(lp2809
(lp2810
I5
a(lp2811
I543
aaaasVaside
p2812
(lp2813
(lp2814
I3
a(lp2815
I1801
aaasVideal
p2816
(lp2817
(lp2818
I4
a(lp2819
I685
aaasVtake
p2820
(lp2821
(lp2822
I3
a(lp2823
I2241
aaa(lp2824
(lp2825
I4
a(lp2826
I22
aaaasVonline
p2827
(lp2828
(lp2829
I5
a(lp2830
I6
aaasVwarrantproof
p2831
(lp2832
(lp2833
I3
a(lp2834
I443
aI1874
aaasV200
p2835
(lp2836
(lp2837
I3
a(lp2838
I1981
aaasVroster
p2839
(lp2840
(lp2841
I6
a(lp2842
I156
aaasVtrack
p2843
(lp2844
(lp2845
I3
a(lp2846
I1143
aaa(lp2847
(lp2848
I6
a(lp2849
I353
aaaasVspewing
p2850
(lp2851
(lp2852
I4
a(lp2853
I937
aaasVpaid
p2854
(lp2855
(lp2856
I5
a(lp2857
I182
aaasVfalls
p2858
(lp2859
(lp2860
I3
a(lp2861
I1025
aaasVdetect
p2862
(lp2863
(lp2864
I3
a(lp2865
I890
aaasVrationale
p2866
(lp2867
(lp2868
I4
a(lp2869
I698
aaa(lp2870
(lp2871
I5
a(lp2872
I550
aaaasVprobes
p2873
(lp2874
(lp2875
I4
a(lp2876
I726
aaasVradioactive
p2877
(lp2878
(lp2879
I4
a(lp2880
I938
aaasVespecially
p2881
(lp2882
(lp2883
I5
a(lp2884
I120
aI612
aaasVmatters\u201cThe
p2885
(lp2886
(lp2887
I3
a(lp2888
I1520
aaasVsenior
p2889
(lp2890
(lp2891
I4
a(lp2892
I229
aaasVlaws
p2893
(lp2894
(lp2895
I3
a(lp2896
I148
aaasVchangeAnother
p2897
(lp2898
(lp2899
I3
a(lp2900
I1575
aaasVcheap
p2901
(lp2902
(lp2903
I3
a(lp2904
I401
aaa(lp2905
(lp2906
I4
a(lp2907
I795
aaaasVhack
p2908
(lp2909
(lp2910
I6
a(lp2911
I260
aaasVcrashing
p2912
(lp2913
(lp2914
I4
a(lp2915
I691
aaasVsafeguard
p2916
(lp2917
(lp2918
I3
a(lp2919
I133
aaasVtreasure
p2920
(lp2921
(lp2922
I6
a(lp2923
I444
aaasVonly
p2924
(lp2925
(lp2926
I3
a(lp2927
I119
aI2129
aaa(lp2928
(lp2929
I4
a(lp2930
I892
aaaasVgoing
p2931
(lp2932
(lp2933
I5
a(lp2934
I10
aI553
aaasVServices
p2935
(lp2936
(lp2937
I5
a(lp2938
I52
aaasVcongressional
p2939
(lp2940
(lp2941
I3
a(lp2942
I1435
aI1548
aI1619
aaa(lp2943
(lp2944
I4
a(lp2945
I395
aaaasVget
p2946
(lp2947
(lp2948
I3
a(lp2949
I1697
aaa(lp2950
(lp2951
I5
a(lp2952
I139
aI269
aaaasVemployers
p2953
(lp2954
(lp2955
I3
a(lp2956
I2222
aI2261
aaasVcannot
p2957
(lp2958
(lp2959
I3
a(lp2960
I372
aI668
aI1513
aaasVnearly
p2961
(lp2962
(lp2963
I3
a(lp2964
I442
aI1873
aaa(lp2965
(lp2966
I4
a(lp2967
I817
aI941
aaaasVobliterate
p2968
(lp2969
(lp2970
I6
a(lp2971
I9
aaasVthermal
p2972
(lp2973
(lp2974
I4
a(lp2975
I181
aI254
aI280
aI633
aI703
aaasVAmazons
p2976
(lp2977
(lp2978
I5
a(lp2979
I69
aI94
aI134
aI358
aI375
aI571
aI590
aaasVmiles
p2980
(lp2981
(lp2982
I4
a(lp2983
I944
aaasVwhere
p2984
(lp2985
(lp2986
I3
a(lp2987
I1621
aaa(lp2988
(lp2989
I5
a(lp2990
I361
aaaasVelected
p2991
(lp2992
(lp2993
I3
a(lp2994
I152
aaasVus
p2995
(lp2996
(lp2997
I5
a(lp2998
I405
aaasVviolates
p2999
(lp3000
(lp3001
I3
a(lp3002
I518
aaasVsuspects
p3003
(lp3004
(lp3005
I3
a(lp3006
I498
aaasVasteroidmined
p3007
(lp3008
(lp3009
I4
a(lp3010
I523
aaasVThat
p3011
(lp3012
(lp3013
I3
a(lp3014
I1597
aI1761
aaa(lp3015
(lp3016
I4
a(lp3017
I897
aaaa(lp3018
(lp3019
I6
a(lp3020
I70
aaaasVways
p3021
(lp3022
(lp3023
I5
a(lp3024
I645
aaa(lp3025
(lp3026
I6
a(lp3027
I462
aaaasVweapons
p3028
(lp3029
(lp3030
I4
a(lp3031
I896
aaasVenough
p3032
(lp3033
(lp3034
I4
a(lp3035
I638
aaasVbetween
p3036
(lp3037
(lp3038
I5
a(lp3039
I313
aaa(lp3040
(lp3041
I6
a(lp3042
I189
aaaasVreading
p3043
(lp3044
(lp3045
I3
a(lp3046
I2245
aaasVacross
p3047
(lp3048
(lp3049
I5
a(lp3050
I245
aaasVinfrastructure
p3051
(lp3052
(lp3053
I5
a(lp3054
I87
aI113
aaasVsignaled
p3055
(lp3056
(lp3057
I3
a(lp3058
I716
aaasVanalyzed
p3059
(lp3060
(lp3061
I3
a(lp3062
I2256
aaa(lp3063
(lp3064
I6
a(lp3065
I470
aaaasVharshly
p3066
(lp3067
(lp3068
I3
a(lp3069
I215
aaasVcome
p3070
(lp3071
(lp3072
I3
a(lp3073
I1999
aaa(lp3074
(lp3075
I6
a(lp3076
I478
aaaasVundermine
p3077
(lp3078
(lp3079
I3
a(lp3080
I571
aaasVmany
p3081
(lp3082
(lp3083
I4
a(lp3084
I148
aI368
aaa(lp3085
(lp3086
I5
a(lp3087
I255
aaaasVaccording
p3088
(lp3089
(lp3090
I5
a(lp3091
I166
aaasVcalled
p3092
(lp3093
(lp3094
I3
a(lp3095
I304
aI394
aaa(lp3096
(lp3097
I4
a(lp3098
I165
aI354
aaaasVcomes
p3099
(lp3100
(lp3101
I5
a(lp3102
I558
aaasVcommentsthe
p3103
(lp3104
(lp3105
I3
a(lp3106
I2176
aaasVcancer
p3107
(lp3108
(lp3109
I4
a(lp3110
I37
aaasVcompels
p3111
(lp3112
(lp3113
I3
a(lp3114
I775
aaasVfuture\u201cUnder
p3115
(lp3116
(lp3117
I3
a(lp3118
I1011
aaasV\u201cUnder
p3119
(lp3120
(lp3121
I3
a(lp3122
I1750
aaasVconsidering
p3123
(lp3124
(lp3125
I4
a(lp3126
I531
aaasVcapable
p3127
(lp3128
(lp3129
I3
a(lp3130
I1412
aaasVencryption
p3131
(lp3132
(lp3133
I3
a(lp3134
I697
aaasVBut
p3135
(lp3136
(lp3137
I4
a(lp3138
I124
aI945
aaasVengineSoviet
p3139
(lp3140
(lp3141
I4
a(lp3142
I144
aaasVcombined
p3143
(lp3144
(lp3145
I5
a(lp3146
I515
aaasVprototype
p3147
(lp3148
(lp3149
I4
a(lp3150
I121
aaasVhardly
p3151
(lp3152
(lp3153
I3
a(lp3154
I2249
aaasVengine
p3155
(lp3156
(lp3157
I4
a(lp3158
I94
aI287
aI666
aI704
aI902
aaasVdirection
p3159
(lp3160
(lp3161
I4
a(lp3162
I309
aaasVoffered
p3163
(lp3164
(lp3165
I3
a(lp3166
I1574
aaasVsurreptitiously
p3167
(lp3168
(lp3169
I3
a(lp3170
I1132
aaasVevidence
p3171
(lp3172
(lp3173
I3
a(lp3174
I1652
aI1670
aaasVformer
p3175
(lp3176
(lp3177
I3
a(lp3178
I380
aI1904
aaa(lp3179
(lp3180
I4
a(lp3181
I394
aaaa(lp3182
(lp3183
I6
a(lp3184
I222
aaaasVthose
p3185
(lp3186
(lp3187
I3
a(lp3188
I1729
aI1751
aaa(lp3189
(lp3190
I4
a(lp3191
I150
aI193
aI439
aI820
aaaa(lp3192
(lp3193
I5
a(lp3194
I380
aaaasVcase
p3195
(lp3196
(lp3197
I3
a(lp3198
I25
aI414
aI423
aI538
aI813
aI927
aI993
aI1152
aI1240
aI1395
aI1692
aI1887
aI1934
aI1987
aI2022
aI2293
aaasVdeveloping
p3199
(lp3200
(lp3201
I4
a(lp3202
I576
aI700
aaasVthese
p3203
(lp3204
(lp3205
I3
a(lp3206
I1056
aaa(lp3207
(lp3208
I4
a(lp3209
I252
aI712
aaaa(lp3210
(lp3211
I5
a(lp3212
I257
aI532
aI641
aaaasVoperational
p3213
(lp3214
(lp3215
I6
a(lp3216
I324
aaasVMarshall
p3217
(lp3218
(lp3219
I3
a(lp3220
I1897
aaasVongoing
p3221
(lp3222
(lp3223
I5
a(lp3224
I70
aI95
aaasVnewspaper
p3225
(lp3226
(lp3227
I6
a(lp3228
I105
aaasVsituation
p3229
(lp3230
(lp3231
I4
a(lp3232
I134
aaasVmetric
p3233
(lp3234
(lp3235
I4
a(lp3236
I353
aaasVOak
p3237
(lp3238
(lp3239
I4
a(lp3240
I390
aaasVdifferent
p3241
(lp3242
(lp3243
I3
a(lp3244
I761
aaa(lp3245
(lp3246
I4
a(lp3247
I444
aaaasVdevelop
p3248
(lp3249
(lp3250
I3
a(lp3251
I1192
aaasVNSA
p3252
(lp3253
(lp3254
I6
a(lp3255
I4
aaasVsame
p3256
(lp3257
(lp3258
I3
a(lp3259
I921
aaa(lp3260
(lp3261
I5
a(lp3262
I597
aaaasVsurveillance
p3263
(lp3264
(lp3265
I3
a(lp3266
I654
aaasVspeech
p3267
(lp3268
(lp3269
I3
a(lp3270
I2207
aI2262
aaasVarguments
p3271
(lp3272
(lp3273
I3
a(lp3274
I2290
aaasVweek
p3275
(lp3276
(lp3277
I3
a(lp3278
I1157
aaa(lp3279
(lp3280
I4
a(lp3281
I82
aI840
aaaasVI
p3282
(lp3283
(lp3284
I3
a(lp3285
I269
aaa(lp3286
(lp3287
I4
a(lp3288
I360
aaaasVassist
p3289
(lp3290
(lp3291
I3
a(lp3292
I648
aI673
aI867
aaasVdrives
p3293
(lp3294
(lp3295
I6
a(lp3296
I56
aaasVintended
p3297
(lp3298
(lp3299
I3
a(lp3300
I281
aI294
aI1401
aI1655
aI1673
aaasVrelies
p3301
(lp3302
(lp3303
I5
a(lp3304
I275
aaasVomelette
p3305
(lp3306
(lp3307
I4
a(lp3308
I952
aaasVlargely
p3309
(lp3310
(lp3311
I3
a(lp3312
I430
aI1861
aaa(lp3313
(lp3314
I6
a(lp3315
I537
aaaasVmacro
p3316
(lp3317
(lp3318
I6
a(lp3319
I435
aaasVroughly
p3320
(lp3321
(lp3322
I4
a(lp3323
I769
aaasVcosts
p3324
(lp3325
(lp3326
I5
a(lp3327
I401
aI566
aI578
aaasVIn
p3328
(lp3329
(lp3330
I3
a(lp3331
I811
aI1645
aaa(lp3332
(lp3333
I4
a(lp3334
I927
aaaa(lp3335
(lp3336
I5
a(lp3337
I172
aaaasVotherwise
p3338
(lp3339
(lp3340
I4
a(lp3341
I344
aaasVIf
p3342
(lp3343
(lp3344
I3
a(lp3345
I983
aaa(lp3346
(lp3347
I5
a(lp3348
I385
aaaasVUnited
p3349
(lp3350
(lp3351
I3
a(lp3352
I1889
aaa(lp3353
(lp3354
I6
a(lp3355
I264
aI429
aaaasVbeing
p3356
(lp3357
(lp3358
I3
a(lp3359
I900
aI1236
aI2110
aI2119
aI2157
aaa(lp3360
(lp3361
I4
a(lp3362
I48
aaaasVunconstitutional
p3363
(lp3364
(lp3365
I3
a(lp3366
I513
aaasVrest
p3367
(lp3368
(lp3369
I3
a(lp3370
I1539
aI2063
aaasVviolent
p3371
(lp3372
(lp3373
I6
a(lp3374
I100
aaasVkill
p3375
(lp3376
(lp3377
I4
a(lp3378
I40
aaasVflavor
p3379
(lp3380
(lp3381
I4
a(lp3382
I258
aaasVannouncement
p3383
(lp3384
(lp3385
I4
a(lp3386
I274
aI838
aaasVdemocratically
p3387
(lp3388
(lp3389
I3
a(lp3390
I151
aaasVextensive
p3391
(lp3392
(lp3393
I5
a(lp3394
I518
aaasVheavier
p3395
(lp3396
(lp3397
I4
a(lp3398
I472
aI477
aaasV\u201cdesperation
p3399
(lp3400
(lp3401
I3
a(lp3402
I240
aaasVreal
p3403
(lp3404
(lp3405
I3
a(lp3406
I299
aaa(lp3407
(lp3408
I6
a(lp3409
I140
aI332
aaaasVaround
p3410
(lp3411
(lp3412
I3
a(lp3413
I584
aaa(lp3414
(lp3415
I4
a(lp3416
I251
aI503
aaaa(lp3417
(lp3418
I5
a(lp3419
I249
aI613
aaaasVvacuumBut
p3420
(lp3421
(lp3422
I4
a(lp3423
I435
aaasVwarehouse
p3424
(lp3425
(lp3426
I5
a(lp3427
I281
aaasVusing
p3428
(lp3429
(lp3430
I3
a(lp3431
I1208
aaa(lp3432
(lp3433
I4
a(lp3434
I69
aaaa(lp3435
(lp3436
I5
a(lp3437
I456
aaaasVruled
p3438
(lp3439
(lp3440
I3
a(lp3441
I858
aaasV60
p3442
(lp3443
(lp3444
I5
a(lp3445
I163
aaasVNikolai
p3446
(lp3447
(lp3448
I4
a(lp3449
I227
aaasV\u201cYou
p3450
(lp3451
(lp3452
I4
a(lp3453
I741
aaasVsuppliers
p3454
(lp3455
(lp3456
I5
a(lp3457
I446
aaasVserves
p3458
(lp3459
(lp3460
I5
a(lp3461
I522
aaasVretailers
p3462
(lp3463
(lp3464
I5
a(lp3465
I489
aaasVfully
p3466
(lp3467
(lp3468
I6
a(lp3469
I469
aaasVMarc
p3470
(lp3471
(lp3472
I3
a(lp3473
I589
aaasVMars
p3474
(lp3475
(lp3476
I4
a(lp3477
I7
aI98
aI516
aI626
aI656
aaasVimages
p3478
(lp3479
(lp3480
I3
a(lp3481
I1136
aaasVNew
p3482
(lp3483
(lp3484
I3
a(lp3485
I791
aI817
aI839
aI1154
aI1198
aaasVThings
p3486
(lp3487
(lp3488
I4
a(lp3489
I908
aaasVthinks
p3490
(lp3491
(lp3492
I4
a(lp3493
I695
aaasVGovernment
p3494
(lp3495
(lp3496
I3
a(lp3497
I446
aaasVlegal
p3498
(lp3499
(lp3500
I3
a(lp3501
I276
aI2061
aaasVcorrosive
p3502
(lp3503
(lp3504
I3
a(lp3505
I123
aaasVprovides
p3506
(lp3507
(lp3508
I5
a(lp3509
I535
aaa(lp3510
(lp3511
I6
a(lp3512
I556
aaaasVIslamic
p3513
(lp3514
(lp3515
I6
a(lp3516
I312
aaasVbusiness
p3517
(lp3518
(lp3519
I3
a(lp3520
I883
aaa(lp3521
(lp3522
I5
a(lp3523
I438
aaaasVseconds
p3524
(lp3525
(lp3526
I4
a(lp3527
I369
aI430
aaasVGaut
p3528
(lp3529
(lp3530
I5
a(lp3531
I470
aI529
aaasVsprung
p3532
(lp3533
(lp3534
I6
a(lp3535
I23
aaasV$700
p3536
(lp3537
(lp3538
I4
a(lp3539
I792
aaasVexciting
p3540
(lp3541
(lp3542
I6
a(lp3543
I564
aaasVon
p3544
(lp3545
(lp3546
I3
a(lp3547
I241
aI297
aI395
aI408
aI487
aI504
aI514
aI712
aI1119
aI1125
aI1139
aI1315
aI1354
aI1379
aI1472
aI1519
aI1536
aI1604
aI2227
aaa(lp3548
(lp3549
I4
a(lp3550
I47
aI351
aI581
aI773
aaaa(lp3551
(lp3552
I5
a(lp3553
I76
aI101
aI276
aI393
aI399
aI606
aI700
aaaa(lp3554
(lp3555
I6
a(lp3556
I89
aaaasVconducting
p3557
(lp3558
(lp3559
I3
a(lp3560
I652
aaasVstations
p3561
(lp3562
(lp3563
I4
a(lp3564
I526
aaasVsmear
p3565
(lp3566
(lp3567
I3
a(lp3568
I283
aaasVpractical
p3569
(lp3570
(lp3571
I4
a(lp3572
I669
aaasVact
p3573
(lp3574
(lp3575
I3
a(lp3576
I238
aI1958
aaasVor
p3577
(lp3578
(lp3579
I3
a(lp3580
I660
aI1111
aI1122
aI1137
aI1180
aI1320
aI1363
aaa(lp3581
(lp3582
I4
a(lp3583
I301
aI343
aI453
aaaa(lp3584
(lp3585
I5
a(lp3586
I459
aaaa(lp3587
(lp3588
I6
a(lp3589
I431
aaaasVforprofit
p3590
(lp3591
(lp3592
I3
a(lp3593
I2117
aaasVcommunication
p3594
(lp3595
(lp3596
I3
a(lp3597
I663
aI677
aaasVvariable
p3598
(lp3599
(lp3600
I3
a(lp3601
I2173
aaasVrising
p3602
(lp3603
(lp3604
I3
a(lp3605
I1414
aaasVdetermine
p3606
(lp3607
(lp3608
I3
a(lp3609
I2142
aaasVparties
p3610
(lp3611
(lp3612
I3
a(lp3613
I420
aaasVyour
p3614
(lp3615
(lp3616
I4
a(lp3617
I473
aI478
aaasVtruthApples
p3618
(lp3619
(lp3620
I3
a(lp3621
I2094
aaasVcapabilitiesOver
p3622
(lp3623
(lp3624
I5
a(lp3625
I229
aaasVThough
p3626
(lp3627
(lp3628
I4
a(lp3629
I184
aaa(lp3630
(lp3631
I6
a(lp3632
I157
aaaasVremoving
p3633
(lp3634
(lp3635
I3
a(lp3636
I2199
aaasVthere
p3637
(lp3638
(lp3639
I3
a(lp3640
I1096
aI1649
aI1668
aaasVlot
p3641
(lp3642
(lp3643
I4
a(lp3644
I610
aaasV1807
p3645
(lp3646
(lp3647
I3
a(lp3648
I1886
aaasVlandbased
p3649
(lp3650
(lp3651
I4
a(lp3652
I875
aaasVJ
p3653
(lp3654
(lp3655
I3
a(lp3656
I383
aaasVthingsNuclear
p3657
(lp3658
(lp3659
I4
a(lp3660
I253
aaasVtrying
p3661
(lp3662
(lp3663
I3
a(lp3664
I1688
aaa(lp3665
(lp3666
I6
a(lp3667
I351
aaaasVwith
p3668
(lp3669
(lp3670
I3
a(lp3671
I46
aI169
aI194
aI222
aI287
aI424
aI1163
aI1285
aI1455
aI1721
aI1785
aI1841
aI1852
aI2001
aI2288
aaa(lp3672
(lp3673
I4
a(lp3674
I11
aI130
aI207
aI558
aaaa(lp3675
(lp3676
I5
a(lp3677
I48
aI485
aI516
aI629
aI672
aaaa(lp3678
(lp3679
I6
a(lp3680
I116
aI368
aI488
aaaasVlonger
p3681
(lp3682
(lp3683
I4
a(lp3684
I620
aaa(lp3685
(lp3686
I5
a(lp3687
I680
aaaasVfraud
p3688
(lp3689
(lp3690
I3
a(lp3691
I891
aaasVHouse
p3692
(lp3693
(lp3694
I4
a(lp3695
I400
aaasVFBI
p3696
(lp3697
(lp3698
I3
a(lp3699
I371
aI381
aI483
aI547
aI1734
aaasVdetailed
p3700
(lp3701
(lp3702
I6
a(lp3703
I283
aaasVwants
p3704
(lp3705
(lp3706
I3
a(lp3707
I935
aI2184
aaasVleaked
p3708
(lp3709
(lp3710
I6
a(lp3711
I49
aI327
aI377
aaasVUSB
p3712
(lp3713
(lp3714
I6
a(lp3715
I55
aaasVSpace
p3716
(lp3717
(lp3718
I4
a(lp3719
I415
aI560
aI579
aI810
aaasVcertain
p3720
(lp3721
(lp3722
I3
a(lp3723
I1632
aaa(lp3724
(lp3725
I5
a(lp3726
I644
aaaasVsales
p3727
(lp3728
(lp3729
I5
a(lp3730
I611
aaasVfellow
p3731
(lp3732
(lp3733
I4
a(lp3734
I230
aI396
aaasVas
p3735
(lp3736
(lp3737
I3
a(lp3738
I69
aI74
aI84
aI89
aI415
aI417
aI795
aI836
aI875
aI897
aI950
aI1312
aI1665
aI1693
aI1802
aI1804
aI1812
aI1814
aI2077
aI2172
aI2187
aI2257
aaa(lp3739
(lp3740
I4
a(lp3741
I750
aaaa(lp3742
(lp3743
I5
a(lp3744
I119
aI286
aaaa(lp3745
(lp3746
I6
a(lp3747
I219
aI331
aI335
aI418
aI514
aaaasVreliability
p3748
(lp3749
(lp3750
I5
a(lp3751
I569
aaasVat
p3752
(lp3753
(lp3754
I3
a(lp3755
I403
aaa(lp3756
(lp3757
I4
a(lp3758
I231
aI276
aI586
aaaa(lp3759
(lp3760
I5
a(lp3761
I159
aI476
aI691
aaaa(lp3762
(lp3763
I6
a(lp3764
I108
aI188
aI451
aI503
aaaasVformulation
p3765
(lp3766
(lp3767
I3
a(lp3768
I1014
aaasVpolitics
p3769
(lp3770
(lp3771
I4
a(lp3772
I544
aaasVAn
p3773
(lp3774
(lp3775
I5
a(lp3776
I301
aaasVfill
p3777
(lp3778
(lp3779
I3
a(lp3780
I1330
aaasVrocketry
p3781
(lp3782
(lp3783
I4
a(lp3784
I447
aaasVcompel
p3785
(lp3786
(lp3787
I3
a(lp3788
I669
aI1269
aI1302
aI1369
aI1486
aaasVsomeones
p3789
(lp3790
(lp3791
I6
a(lp3792
I474
aaasVyou
p3793
(lp3794
(lp3795
I4
a(lp3796
I41
aI43
aI455
aI462
aI469
aI483
aaa(lp3797
(lp3798
I6
a(lp3799
I557
aaaasVLaw
p3800
(lp3801
(lp3802
I3
a(lp3803
I632
aaasVapplicationsRussia
p3804
(lp3805
(lp3806
I4
a(lp3807
I752
aaasVseparate
p3808
(lp3809
(lp3810
I3
a(lp3811
I1150
aaasVincludes
p3812
(lp3813
(lp3814
I6
a(lp3815
I73
aaasVimportant
p3816
(lp3817
(lp3818
I6
a(lp3819
I502
aaasVpeak
p3820
(lp3821
(lp3822
I5
a(lp3823
I692
aaasVCNN
p3824
(lp3825
(lp3826
I6
a(lp3827
I133
aaasVbuilding
p3828
(lp3829
(lp3830
I4
a(lp3831
I91
aaa(lp3832
(lp3833
I5
a(lp3834
I82
aI107
aI237
aaaasVshipping
p3835
(lp3836
(lp3837
I5
a(lp3838
I142
aI400
aI560
aI565
aI577
aI627
aaasVModern
p3839
(lp3840
(lp3841
I4
a(lp3842
I594
aaasVhaving
p3843
(lp3844
(lp3845
I3
a(lp3846
I2067
aaasVStreet
p3847
(lp3848
(lp3849
I5
a(lp3850
I170
aaasVoral
p3851
(lp3852
(lp3853
I3
a(lp3854
I2289
aaasVCanada
p3855
(lp3856
(lp3857
I4
a(lp3858
I936
aaasVrepresent
p3859
(lp3860
(lp3861
I6
a(lp3862
I149
aaasVall
p3863
(lp3864
(lp3865
I3
a(lp3866
I419
aaa(lp3867
(lp3868
I4
a(lp3869
I735
aaaa(lp3870
(lp3871
I5
a(lp3872
I684
aaaa(lp3873
(lp3874
I6
a(lp3875
I383
aaaasVlack
p3876
(lp3877
(lp3878
I3
a(lp3879
I1342
aaasVsplitting
p3880
(lp3881
(lp3882
I4
a(lp3883
I292
aaasVmonth
p3884
(lp3885
(lp3886
I3
a(lp3887
I456
aaa(lp3888
(lp3889
I4
a(lp3890
I101
aaaasVexecuting
p3891
(lp3892
(lp3893
I3
a(lp3894
I1642
aaasVupholds
p3895
(lp3896
(lp3897
I3
a(lp3898
I986
aaasVreasoning
p3899
(lp3900
(lp3901
I3
a(lp3902
I1546
aaasV2018If
p3903
(lp3904
(lp3905
I4
a(lp3906
I879
aaasVto
p3907
(lp3908
(lp3909
I3
a(lp3910
I30
aI41
aI76
aI132
aI196
aI211
aI216
aI233
aI282
aI295
aI311
aI314
aI328
aI345
aI348
aI364
aI398
aI406
aI437
aI459
aI565
aI570
aI599
aI614
aI619
aI623
aI672
aI707
aI741
aI752
aI777
aI821
aI825
aI850
aI866
aI887
aI906
aI913
aI918
aI940
aI997
aI1038
aI1044
aI1062
aI1084
aI1087
aI1100
aI1117
aI1128
aI1142
aI1174
aI1177
aI1183
aI1191
aI1195
aI1220
aI1225
aI1251
aI1263
aI1268
aI1272
aI1301
aI1305
aI1329
aI1348
aI1368
aI1371
aI1415
aI1419
aI1458
aI1485
aI1488
aI1538
aI1610
aI1613
aI1616
aI1629
aI1656
aI1659
aI1674
aI1689
aI1696
aI1700
aI1758
aI1780
aI1789
aI1799
aI1839
aI1868
aI1912
aI1948
aI1966
aI1978
aI1983
aI1988
aI1998
aI2035
aI2068
aI2085
aI2112
aI2121
aI2139
aI2141
aI2144
aI2180
aI2240
aI2270
aI2272
aI2284
aaa(lp3911
(lp3912
I4
a(lp3913
I4
aI6
aI52
aI106
aI128
aI266
aI284
aI298
aI335
aI426
aI457
aI464
aI485
aI491
aI515
aI607
aI625
aI640
aI649
aI655
aI674
aI681
aI688
aI692
aI707
aI733
aI744
aI757
aI783
aI815
aI872
aI894
aI917
aI925
aaaa(lp3914
(lp3915
I5
a(lp3916
I11
aI25
aI29
aI37
aI45
aI72
aI97
aI122
aI138
aI162
aI167
aI203
aI260
aI272
aI308
aI338
aI346
aI357
aI374
aI382
aI430
aI445
aI451
aI453
aI463
aI483
aI490
aI545
aI559
aI562
aI582
aI603
aI648
aI655
aI682
aI696
aaaa(lp3917
(lp3918
I6
a(lp3919
I52
aI97
aI138
aI257
aI276
aI301
aI338
aI352
aI401
aI419
aI490
aaaasVprogram
p3920
(lp3921
(lp3922
I4
a(lp3923
I164
aaa(lp3924
(lp3925
I5
a(lp3926
I300
aaaasVlawmakers
p3927
(lp3928
(lp3929
I3
a(lp3930
I711
aI1319
aI1351
aI1383
aaasVSNAP10A
p3931
(lp3932
(lp3933
I4
a(lp3934
I166
aaasVsound
p3935
(lp3936
(lp3937
I3
a(lp3938
I1450
aaasVvery
p3939
(lp3940
(lp3941
I3
a(lp3942
I126
aaa(lp3943
(lp3944
I6
a(lp3945
I549
aI563
aaaasVtheyve
p3946
(lp3947
(lp3948
I3
a(lp3949
I1995
aaasVbalancing
p3950
(lp3951
(lp3952
I4
a(lp3953
I489
aaasVscour
p3954
(lp3955
(lp3956
I6
a(lp3957
I413
aaasVfall
p3958
(lp3959
(lp3960
I4
a(lp3961
I924
aaasV\u201cThe
p3962
(lp3963
(lp3964
I4
a(lp3965
I242
aaasVcondition
p3966
(lp3967
(lp3968
I3
a(lp3969
I1605
aaasVlist
p3970
(lp3971
(lp3972
I6
a(lp3973
I381
aaasVemploying
p3974
(lp3975
(lp3976
I3
a(lp3977
I695
aaasVwithheld
p3978
(lp3979
(lp3980
I3
a(lp3981
I562
aaasVpast
p3982
(lp3983
(lp3984
I3
a(lp3985
I609
aaa(lp3986
(lp3987
I5
a(lp3988
I622
aaaasVgo
p3989
(lp3990
(lp3991
I4
a(lp3992
I5
aI458
aI642
aI758
aaasVOnly
p3993
(lp3994
(lp3995
I3
a(lp3996
I2248
aaasVdesign
p3997
(lp3998
(lp3999
I3
a(lp4000
I438
aI1869
aaasVperspective
p4001
(lp4002
(lp4003
I3
a(lp4004
I1067
aaa(lp4005
(lp4006
I6
a(lp4007
I437
aaaasVEast
p4008
(lp4009
(lp4010
I6
a(lp4011
I374
aaasVwhat
p4012
(lp4013
(lp4014
I3
a(lp4015
I833
aaa(lp4016
(lp4017
I6
a(lp4018
I50
aaaasVopted
p4019
(lp4020
(lp4021
I3
a(lp4022
I612
aaasVbrief
p4023
(lp4024
(lp4025
I3
a(lp4026
I56
aI101
aI226
aI250
aI277
aI1054
aI1499
aI2275
aaasVversion
p4027
(lp4028
(lp4029
I3
a(lp4030
I1211
aaasVinferences
p4031
(lp4032
(lp4033
I3
a(lp4034
I1557
aaasVscientists
p4035
(lp4036
(lp4037
I4
a(lp4038
I145
aI346
aaasVpublic
p4039
(lp4040
(lp4041
I3
a(lp4042
I1279
aaa(lp4043
(lp4044
I4
a(lp4045
I842
aaaa(lp4046
(lp4047
I5
a(lp4048
I474
aaaasVcontrast
p4049
(lp4050
(lp4051
I3
a(lp4052
I1646
aaasVmovement
p4053
(lp4054
(lp4055
I6
a(lp4056
I404
aaasVrecruits
p4057
(lp4058
(lp4059
I6
a(lp4060
I217
aI359
aaasVmodify
p4061
(lp4062
(lp4063
I3
a(lp4064
I2122
aaasVdisastrous
p4065
(lp4066
(lp4067
I6
a(lp4068
I259
aaasVoperating
p4069
(lp4070
(lp4071
I3
a(lp4072
I1214
aaa(lp4073
(lp4074
I6
a(lp4075
I426
aaaasVstrong
p4076
(lp4077
(lp4078
I5
a(lp4079
I536
aaasVsearch
p4080
(lp4081
(lp4082
I3
a(lp4083
I1736
aaasVprosecutors
p4084
(lp4085
(lp4086
I3
a(lp4087
I1245
aaa(lp4088
(lp4089
I6
a(lp4090
I350
aI407
aaaasVallows
p4091
(lp4092
(lp4093
I3
a(lp4094
I1217
aaasVbrutal
p4095
(lp4096
(lp4097
I6
a(lp4098
I38
aaasVprior
p4099
(lp4100
(lp4101
I3
a(lp4102
I1544
aaasVrequiring
p4103
(lp4104
(lp4105
I3
a(lp4106
I457
aaasVusurpation
p4107
(lp4108
(lp4109
I3
a(lp4110
I1433
aaasVEurope
p4111
(lp4112
(lp4113
I6
a(lp4114
I432
aaasVRussias
p4115
(lp4116
(lp4117
I4
a(lp4118
I664
aaasVtwo
p4119
(lp4120
(lp4121
I3
a(lp4122
I1815
aaa(lp4123
(lp4124
I4
a(lp4125
I440
aaaasVRussian
p4126
(lp4127
(lp4128
I4
a(lp4129
I881
aaasVmore
p4130
(lp4131
(lp4132
I3
a(lp4133
I280
aI1836
aI1932
aaa(lp4134
(lp4135
I4
a(lp4136
I127
aI460
aI467
aI481
aI611
aI710
aI727
aaaa(lp4137
(lp4138
I5
a(lp4139
I368
aI389
aI465
aI523
aI650
aaaa(lp4140
(lp4141
I6
a(lp4142
I358
aI453
aaaasVBoeing
p4143
(lp4144
(lp4145
I5
a(lp4146
I56
aaasVKennedy
p4147
(lp4148
(lp4149
I4
a(lp4150
I382
aaasVcompany
p4151
(lp4152
(lp4153
I3
a(lp4154
I339
aI472
aI622
aI661
aI671
aI680
aI693
aI820
aI862
aI908
aI1219
aI1271
aI1304
aaa(lp4155
(lp4156
I5
a(lp4157
I61
aI115
aI480
aI544
aI635
aaaasVAmerican
p4158
(lp4159
(lp4160
I3
a(lp4161
I559
aI2060
aaasVimpulse
p4162
(lp4163
(lp4164
I4
a(lp4165
I593
aaasVknown
p4166
(lp4167
(lp4168
I3
a(lp4169
I835
aaa(lp4170
(lp4171
I6
a(lp4172
I215
aaaasVinclude
p4173
(lp4174
(lp4175
I4
a(lp4176
I825
aaa(lp4177
(lp4178
I5
a(lp4179
I354
aaaa(lp4180
(lp4181
I6
a(lp4182
I379
aaaasVequation
p4183
(lp4184
(lp4185
I4
a(lp4186
I488
aaasVfast
p4187
(lp4188
(lp4189
I5
a(lp4190
I140
aaasVCongresss
p4191
(lp4192
(lp4193
I3
a(lp4194
I1445
aI1517
aaasVMartian
p4195
(lp4196
(lp4197
I4
a(lp4198
I51
aI644
aaasVv
p4199
(lp4200
(lp4201
I3
a(lp4202
I790
aI1891
aaasVhalfwith
p4203
(lp4204
(lp4205
I4
a(lp4206
I104
aaasVbackdoors
p4207
(lp4208
(lp4209
I3
a(lp4210
I743
aI1476
aaasVnumbers
p4211
(lp4212
(lp4213
I3
a(lp4214
I827
aaa(lp4215
(lp4216
I6
a(lp4217
I78
aaaasVlacks
p4218
(lp4219
(lp4220
I3
a(lp4221
I1550
aaa(lp4222
(lp4223
I4
a(lp4224
I763
aaaasVcondemn
p4225
(lp4226
(lp4227
I3
a(lp4228
I234
aaasVinformation
p4229
(lp4230
(lp4231
I3
a(lp4232
I874
aaa(lp4233
(lp4234
I6
a(lp4235
I65
aI84
aI114
aI136
aI147
aI213
aI329
aI441
aI561
aaaasVneeds
p4236
(lp4237
(lp4238
I3
a(lp4239
I1043
aaa(lp4240
(lp4241
I5
a(lp4242
I495
aaaasVcourt
p4243
(lp4244
(lp4245
I3
a(lp4246
I18
aI59
aI368
aI510
aI530
aI598
aI985
aI1048
aI1250
aI1938
aI1986
aaasVgoal
p4247
(lp4248
(lp4249
I4
a(lp4250
I117
aaasVrather
p4251
(lp4252
(lp4253
I3
a(lp4254
I331
aI1441
aI2074
aI2263
aaasVbreaking
p4255
(lp4256
(lp4257
I4
a(lp4258
I954
aaasVNASA
p4259
(lp4260
(lp4261
I4
a(lp4262
I555
aaasVearnings
p4263
(lp4264
(lp4265
I5
a(lp4266
I176
aI573
aI670
aaasVairborneThe
p4267
(lp4268
(lp4269
I5
a(lp4270
I3
aaasVplans
p4271
(lp4272
(lp4273
I4
a(lp4274
I871
aaasVorbits
p4275
(lp4276
(lp4277
I4
a(lp4278
I686
aaasVblood
p4279
(lp4280
(lp4281
I6
a(lp4282
I82
aaasVKelly
p4283
(lp4284
(lp4285
I5
a(lp4286
I215
aaasVresponse
p4287
(lp4288
(lp4289
I3
a(lp4290
I1389
aI1704
aaasVa
p4291
(lp4292
(lp4293
I3
a(lp4294
I17
aI55
aI77
aI220
aI275
aI367
aI431
aI441
aI461
aI552
aI621
aI635
aI658
aI692
aI760
aI830
aI837
aI876
aI1046
aI1126
aI1144
aI1149
aI1222
aI1270
aI1274
aI1303
aI1307
aI1321
aI1338
aI1344
aI1357
aI1532
aI1543
aI1631
aI1694
aI1698
aI1722
aI1862
aI1872
aI1900
aI1914
aI1931
aI1937
aI1953
aI1985
aI2044
aI2079
aI2108
aI2116
aI2243
aaa(lp4295
(lp4296
I4
a(lp4297
I58
aI92
aI100
aI103
aI120
aI142
aI249
aI352
aI362
aI376
aI383
aI434
aI449
aI497
aI500
aI510
aI539
aI549
aI589
aI609
aI619
aI632
aI652
aI701
aI717
aI785
aI797
aI845
aI874
aI929
aaaa(lp4298
(lp4299
I5
a(lp4300
I21
aI32
aI43
aI238
aI437
aaaa(lp4301
(lp4302
I6
a(lp4303
I5
aI24
aI54
aI110
aI150
aI235
aI343
aI365
aI380
aI434
aI443
aI452
aI492
aI515
aI520
aI525
aaaasVshort
p4304
(lp4305
(lp4306
I3
a(lp4307
I1680
aaasV\u201cunsupported
p4308
(lp4309
(lp4310
I3
a(lp4311
I325
aaasVhelp
p4312
(lp4313
(lp4314
I3
a(lp4315
I481
aI624
aI1129
aaa(lp4316
(lp4317
I6
a(lp4318
I392
aaaasVRosatom
p4319
(lp4320
(lp4321
I4
a(lp4322
I87
aI262
aI766
aI834
aI870
aaasVmission
p4323
(lp4324
(lp4325
I4
a(lp4326
I425
aI514
aI654
aaasVheld
p4327
(lp4328
(lp4329
I3
a(lp4330
I1898
aI1939
aaasVisnt
p4331
(lp4332
(lp4333
I3
a(lp4334
I1188
aaa(lp4335
(lp4336
I4
a(lp4337
I315
aaaasVscientist
p4338
(lp4339
(lp4340
I6
a(lp4341
I252
aaasVthrough
p4342
(lp4343
(lp4344
I3
a(lp4345
I159
aI549
aI655
aaasVits
p4346
(lp4347
(lp4348
I3
a(lp4349
I100
aI312
aI346
aI475
aI766
aI881
aI953
aI1053
aI1089
aI1388
aI1590
aI1622
aI1703
aI1807
aI1990
aI2047
aaa(lp4350
(lp4351
I4
a(lp4352
I116
aI273
aI564
aI836
aaaa(lp4353
(lp4354
I5
a(lp4355
I9
aI13
aI26
aI39
aI74
aI83
aI99
aI109
aI123
aI173
aI270
aI292
aI310
aI394
aI440
aI468
aI503
aI576
aI626
aI630
aI639
aaaa(lp4356
(lp4357
I6
a(lp4358
I28
aI323
aI468
aI544
aI562
aaaasV50000
p4359
(lp4360
(lp4361
I4
a(lp4362
I942
aaasVMarch
p4363
(lp4364
(lp4365
I3
a(lp4366
I2268
aI2282
aaasV22
p4367
(lp4368
(lp4369
I3
a(lp4370
I2283
aaasVwishful
p4371
(lp4372
(lp4373
I4
a(lp4374
I70
aaasVactually
p4375
(lp4376
(lp4377
I4
a(lp4378
I146
aaasVabsence
p4379
(lp4380
(lp4381
I3
a(lp4382
I1336
aaasV15year
p4383
(lp4384
(lp4385
I4
a(lp4386
I798
aaasVsystems
p4387
(lp4388
(lp4389
I3
a(lp4390
I746
aaa(lp4391
(lp4392
I4
a(lp4393
I195
aI270
aI384
aaaasVbypass
p4394
(lp4395
(lp4396
I3
a(lp4397
I1088
aI1221
aaasVmight
p4398
(lp4399
(lp4400
I3
a(lp4401
I1059
aaa(lp4402
(lp4403
I4
a(lp4404
I113
aaaasV\u201chuman
p4405
(lp4406
(lp4407
I6
a(lp4408
I306
aaasVsomeone
p4409
(lp4410
(lp4411
I6
a(lp4412
I555
aaasVreturn
p4413
(lp4414
(lp4415
I4
a(lp4416
I59
aI648
aaasVseeking
p4417
(lp4418
(lp4419
I3
a(lp4420
I548
aI982
aI1000
aI2151
aaa(lp4421
(lp4422
I6
a(lp4423
I400
aaaasVsweeping
p4424
(lp4425
(lp4426
I3
a(lp4427
I1057
aaasVAmendment
p4428
(lp4429
(lp4430
I3
a(lp4431
I143
aI2049
aI2096
aaasValways
p4432
(lp4433
(lp4434
I4
a(lp4435
I914
aaasVTelephone
p4436
(lp4437
(lp4438
I3
a(lp4439
I793
aI819
aI841
aaasV\u2018that
p4440
(lp4441
(lp4442
I3
a(lp4443
I1527
aaasVmicro
p4444
(lp4445
(lp4446
I6
a(lp4447
I454
aaasVstopped
p4448
(lp4449
(lp4450
I4
a(lp4451
I888
aaasVweight
p4452
(lp4453
(lp4454
I4
a(lp4455
I492
aaasVreduce
p4456
(lp4457
(lp4458
I5
a(lp4459
I73
aI98
aI564
aaasVFission
p4460
(lp4461
(lp4462
I4
a(lp4463
I721
aaasVconnect
p4464
(lp4465
(lp4466
I6
a(lp4467
I459
aaasVreally
p4468
(lp4469
(lp4470
I4
a(lp4471
I243
aaasVfunding
p4472
(lp4473
(lp4474
I4
a(lp4475
I851
aaasVprojected
p4476
(lp4477
(lp4478
I4
a(lp4479
I814
aaasVresearch
p4480
(lp4481
(lp4482
I6
a(lp4483
I169
aaasVissue
p4484
(lp4485
(lp4486
I3
a(lp4487
I1474
aI1614
aaasVmembers
p4488
(lp4489
(lp4490
I5
a(lp4491
I128
aI158
aaa(lp4492
(lp4493
I6
a(lp4494
I355
aaaasVput
p4495
(lp4496
(lp4497
I5
a(lp4498
I153
aaa(lp4499
(lp4500
I6
a(lp4501
I486
aaaasVgenerate
p4502
(lp4503
(lp4504
I4
a(lp4505
I289
aaasVbenefits
p4506
(lp4507
(lp4508
I5
a(lp4509
I145
aaasVCongress
p4510
(lp4511
(lp4512
I3
a(lp4513
I535
aI556
aI610
aI1256
aI1400
aI1468
aI1625
aI1654
aI1672
aaasVlaunch
p4514
(lp4515
(lp4516
I4
a(lp4517
I829
aaasVneeding
p4518
(lp4519
(lp4520
I3
a(lp4521
I1977
aaasVotherThe
p4522
(lp4523
(lp4524
I4
a(lp4525
I313
aaasVtwenty
p4526
(lp4527
(lp4528
I5
a(lp4529
I55
aaasVElon
p4530
(lp4531
(lp4532
I4
a(lp4533
I518
aaasVwiretaps
p4534
(lp4535
(lp4536
I3
a(lp4537
I656
aaasVdont
p4538
(lp4539
(lp4540
I3
a(lp4541
I270
aI2024
aaa(lp4542
(lp4543
I4
a(lp4544
I824
aaaasVLevittLevitt
p4545
(lp4546
(lp4547
I6
a(lp4548
I507
aaasVnumber
p4549
(lp4550
(lp4551
I4
a(lp4552
I846
aaa(lp4553
(lp4554
I5
a(lp4555
I155
aaaa(lp4556
(lp4557
I6
a(lp4558
I160
aI187
aI241
aI476
aaaasVanonymity
p4559
(lp4560
(lp4561
I3
a(lp4562
I1607
aaasVleading
p4563
(lp4564
(lp4565
I3
a(lp4566
I75
aaasV\u201cGoing
p4567
(lp4568
(lp4569
I4
a(lp4570
I841
aaasVleast
p4571
(lp4572
(lp4573
I4
a(lp4574
I9
aI587
aaa(lp4575
(lp4576
I6
a(lp4577
I109
aaaasVpassed
p4578
(lp4579
(lp4580
I3
a(lp4581
I637
aaasVmajority
p4582
(lp4583
(lp4584
I6
a(lp4585
I180
aaasVscheme
p4586
(lp4587
(lp4588
I3
a(lp4589
I698
aaasVlease
p4590
(lp4591
(lp4592
I5
a(lp4593
I47
aaasVoutgrown
p4594
(lp4595
(lp4596
I5
a(lp4597
I640
aaasVpart
p4598
(lp4599
(lp4600
I3
a(lp4601
I243
aI951
aI1317
aI1381
aaa(lp4602
(lp4603
I4
a(lp4604
I807
aaaasVboredom
p4605
(lp4606
(lp4607
I4
a(lp4608
I33
aaasVkind
p4609
(lp4610
(lp4611
I3
a(lp4612
I166
aI976
aaa(lp4613
(lp4614
I6
a(lp4615
I559
aaaasVgrew
p4616
(lp4617
(lp4618
I5
a(lp4619
I579
aaasVdouble
p4620
(lp4621
(lp4622
I4
a(lp4623
I588
aaasVplateaus
p4624
(lp4625
(lp4626
I4
a(lp4627
I493
aaasV2025
p4628
(lp4629
(lp4630
I4
a(lp4631
I123
aI789
aaasVcost
p4632
(lp4633
(lp4634
I4
a(lp4635
I534
aI816
aI827
aaasVprocedural
p4636
(lp4637
(lp4638
I3
a(lp4639
I1639
aaasVwasnt
p4640
(lp4641
(lp4642
I3
a(lp4643
I1385
aaasVIt
p4644
(lp4645
(lp4646
I3
a(lp4647
I1928
aaa(lp4648
(lp4649
I5
a(lp4650
I289
aaaasVCurrent
p4651
(lp4652
(lp4653
I5
a(lp4654
I150
aaasVorders
p4655
(lp4656
(lp4657
I3
a(lp4658
I1615
aaasVhighthrust
p4659
(lp4660
(lp4661
I4
a(lp4662
I203
aaasVthought
p4663
(lp4664
(lp4665
I6
a(lp4666
I275
aaasVbuilt
p4667
(lp4668
(lp4669
I3
a(lp4670
I473
aaasVreliance
p4671
(lp4672
(lp4673
I3
a(lp4674
I1446
aaasValso
p4675
(lp4676
(lp4677
I3
a(lp4678
I122
aI157
aI688
aI1778
aI1929
aI2005
aI2195
aaa(lp4679
(lp4680
I4
a(lp4681
I724
aaaa(lp4682
(lp4683
I5
a(lp4684
I290
aaaasVwithout
p4685
(lp4686
(lp4687
I3
a(lp4688
I1744
aaa(lp4689
(lp4690
I4
a(lp4691
I68
aI953
aaaasVbuild
p4692
(lp4693
(lp4694
I4
a(lp4695
I522
aaa(lp4696
(lp4697
I5
a(lp4698
I30
aaaasVadded
p4699
(lp4700
(lp4701
I3
a(lp4702
I342
aaasVeggs
p4703
(lp4704
(lp4705
I4
a(lp4706
I955
aaasVreach
p4707
(lp4708
(lp4709
I3
a(lp4710
I1979
aaa(lp4711
(lp4712
I4
a(lp4713
I97
aaaa(lp4714
(lp4715
I5
a(lp4716
I501
aaaasVCommunications
p4717
(lp4718
(lp4719
I3
a(lp4720
I629
aaasVChief
p4721
(lp4722
(lp4723
I3
a(lp4724
I382
aI1895
aaasVplan
p4725
(lp4726
(lp4727
I5
a(lp4728
I425
aaasVsignificant
p4729
(lp4730
(lp4731
I6
a(lp4732
I151
aaasVthrusters
p4733
(lp4734
(lp4735
I4
a(lp4736
I617
aI677
aaasVnothing
p4737
(lp4738
(lp4739
I3
a(lp4740
I1099
aI2091
aaasVThe
p4741
(lp4742
(lp4743
I3
a(lp4744
I0
aI49
aI183
aI478
aI854
aI1186
aI1776
aI2232
aaa(lp4745
(lp4746
I4
a(lp4747
I321
aI451
aI466
aaaa(lp4748
(lp4749
I5
a(lp4750
I63
aI88
aI114
aI168
aI332
aaaa(lp4751
(lp4752
I6
a(lp4753
I376
aaaasV19000
p4754
(lp4755
(lp4756
I6
a(lp4757
I190
aaasVCapitol
p4758
(lp4759
(lp4760
I3
a(lp4761
I713
aaasVclear
p4762
(lp4763
(lp4764
I3
a(lp4765
I1345
aI1526
aI1623
aaa(lp4766
(lp4767
I6
a(lp4768
I466
aaaasVsometimes
p4769
(lp4770
(lp4771
I3
a(lp4772
I2066
aaa(lp4773
(lp4774
I4
a(lp4775
I923
aaaa(lp4776
(lp4777
I5
a(lp4778
I601
aaaasVLevitt
p4779
(lp4780
(lp4781
I6
a(lp4782
I364
aaasVgovernmentThe
p4783
(lp4784
(lp4785
I3
a(lp4786
I155
aaasVinstitutions
p4787
(lp4788
(lp4789
I3
a(lp4790
I127
aaasVjoining
p4791
(lp4792
(lp4793
I6
a(lp4794
I361
aaasVLevittBut
p4795
(lp4796
(lp4797
I6
a(lp4798
I450
aaasVparticularly
p4799
(lp4800
(lp4801
I3
a(lp4802
I1533
aaasVWyden
p4803
(lp4804
(lp4805
I3
a(lp4806
I725
aaasVHill
p4807
(lp4808
(lp4809
I3
a(lp4810
I714
aaasV\u201cISIS
p4811
(lp4812
(lp4813
I6
a(lp4814
I535
aaasVfind
p4815
(lp4816
(lp4817
I3
a(lp4818
I1984
aaasVgiant
p4819
(lp4820
(lp4821
I3
a(lp4822
I945
aaasVnorthern
p4823
(lp4824
(lp4825
I4
a(lp4826
I935
aaasVjustice
p4827
(lp4828
(lp4829
I3
a(lp4830
I1461
aaasVwrites
p4831
(lp4832
(lp4833
I3
a(lp4834
I2102
aaasVassertion
p4835
(lp4836
(lp4837
I3
a(lp4838
I53
aaasVfailed
p4839
(lp4840
(lp4841
I3
a(lp4842
I1528
aaasVrubles
p4843
(lp4844
(lp4845
I4
a(lp4846
I772
aI823
aaasVPrime
p4847
(lp4848
(lp4849
I5
a(lp4850
I127
aI157
aI183
aI208
aaasVhis
p4851
(lp4852
(lp4853
I5
a(lp4854
I479
aaasVhit
p4855
(lp4856
(lp4857
I6
a(lp4858
I262
aI304
aaasVmeanwhile
p4859
(lp4860
(lp4861
I5
a(lp4862
I178
aI304
aaasVexpress
p4863
(lp4864
(lp4865
I3
a(lp4866
I2181
aaasVpreparing
p4867
(lp4868
(lp4869
I5
a(lp4870
I307
aaasVreporters
p4871
(lp4872
(lp4873
I3
a(lp4874
I223
aaasVduring
p4875
(lp4876
(lp4877
I4
a(lp4878
I577
aaa(lp4879
(lp4880
I5
a(lp4881
I608
aaaasViPhoneThe
p4882
(lp4883
(lp4884
I3
a(lp4885
I785
aaasVRepresentativess
p4886
(lp4887
(lp4888
I4
a(lp4889
I402
aaasVremove
p4890
(lp4891
(lp4892
I3
a(lp4893
I1728
aaasVcouriers
p4894
(lp4895
(lp4896
I5
a(lp4897
I377
aaasVwrote
p4898
(lp4899
(lp4900
I3
a(lp4901
I98
aI591
aI1051
aI1496
aI1749
aI1819
aaasVset
p4902
(lp4903
(lp4904
I3
a(lp4905
I1800
aaasVFor
p4906
(lp4907
(lp4908
I4
a(lp4909
I405
aI802
aaasVintelligence
p4910
(lp4911
(lp4912
I6
a(lp4913
I44
aI125
aI436
aI447
aI517
aaasVare
p4914
(lp4915
(lp4916
I3
a(lp4917
I26
aI129
aI1070
aI1282
aI1531
aI2012
aaa(lp4918
(lp4919
I4
a(lp4920
I442
aI742
aaaa(lp4921
(lp4922
I5
a(lp4923
I410
aI677
aaaasVclose
p4924
(lp4925
(lp4926
I3
a(lp4927
I1453
aaasVdeclined
p4928
(lp4929
(lp4930
I5
a(lp4931
I462
aaasVwidelythe
p4932
(lp4933
(lp4934
I6
a(lp4935
I168
aaasVcurrently
p4936
(lp4937
(lp4938
I3
a(lp4939
I1294
aaa(lp4940
(lp4941
I4
a(lp4942
I66
aaaasVfamiliarity
p4943
(lp4944
(lp4945
I3
a(lp4946
I1454
aaasVfission
p4947
(lp4948
(lp4949
I4
a(lp4950
I194
aI281
aI634
aI653
aaasVprobably
p4951
(lp4952
(lp4953
I4
a(lp4954
I762
aaasVnumerous
p4955
(lp4956
(lp4957
I3
a(lp4958
I12
aaasVinaction
p4959
(lp4960
(lp4961
I3
a(lp4962
I1549
aI1563
aaasVrecently
p4963
(lp4964
(lp4965
I3
a(lp4966
I710
aaasVcreating
p4967
(lp4968
(lp4969
I4
a(lp4970
I340
aaasVaircraft
p4971
(lp4972
(lp4973
I5
a(lp4974
I59
aaasVsucceed
p4975
(lp4976
(lp4977
I4
a(lp4978
I884
aaasVopposition
p4979
(lp4980
(lp4981
I3
a(lp4982
I719
aaa(lp4983
(lp4984
I6
a(lp4985
I104
aaaasVThats
p4986
(lp4987
(lp4988
I3
a(lp4989
I1992
aaa(lp4990
(lp4991
I4
a(lp4992
I790
aaaasVboth
p4993
(lp4994
(lp4995
I6
a(lp4996
I406
aI531
aaasVlast
p4997
(lp4998
(lp4999
I3
a(lp5000
I455
aI1156
aaa(lp5001
(lp5002
I4
a(lp5003
I839
aaaa(lp5004
(lp5005
I5
a(lp5006
I174
aI572
aI585
aaaa(lp5007
(lp5008
I6
a(lp5009
I238
aI270
aaaasV\u201cwrites
p5010
(lp5011
(lp5012
I3
a(lp5013
I947
aaasVforeign
p5014
(lp5015
(lp5016
I6
a(lp5017
I175
aI398
aaasVpdf
p5018
(lp5019
(lp5020
I3
a(lp5021
I114
aaasVwhole
p5022
(lp5023
(lp5024
I3
a(lp5025
I2088
aaasVexperimental
p5026
(lp5027
(lp5028
I5
a(lp5029
I297
aaasVhackers
p5030
(lp5031
(lp5032
I3
a(lp5033
I353
aaa(lp5034
(lp5035
I6
a(lp5036
I274
aaaasVreasons
p5037
(lp5038
(lp5039
I5
a(lp5040
I533
aaasVwhatever
p5041
(lp5042
(lp5043
I3
a(lp5044
I2182
aaasVdecipher
p5045
(lp5046
(lp5047
I3
a(lp5048
I1913
aaasVsimply
p5049
(lp5050
(lp5051
I3
a(lp5052
I1069
aaasVnowThe
p5053
(lp5054
(lp5055
I4
a(lp5056
I569
aaasVvindicating
p5057
(lp5058
(lp5059
I3
a(lp5060
I1771
aaasVexpensive
p5061
(lp5062
(lp5063
I4
a(lp5064
I244
aaasVcreate
p5065
(lp5066
(lp5067
I3
a(lp5068
I460
aI1790
aaa(lp5069
(lp5070
I4
a(lp5071
I375
aaaa(lp5072
(lp5073
I6
a(lp5074
I491
aaaasVsecret
p5075
(lp5076
(lp5077
I6
a(lp5078
I60
aaasVCalifornia
p5079
(lp5080
(lp5081
I3
a(lp5082
I113
aaasVbudgeted
p5083
(lp5084
(lp5085
I4
a(lp5086
I768
aaasVfire
p5087
(lp5088
(lp5089
I4
a(lp5090
I615
aI675
aaasVgap
p5091
(lp5092
(lp5093
I3
a(lp5094
I1332
aaasVlaunchready
p5095
(lp5096
(lp5097
I4
a(lp5098
I786
aaasVdemand
p5099
(lp5100
(lp5101
I3
a(lp5102
I1949
aaasVtreatieswhich
p5103
(lp5104
(lp5105
I4
a(lp5106
I891
aaasV\u201cdeeply
p5107
(lp5108
(lp5109
I3
a(lp5110
I321
aaasVjudicial
p5111
(lp5112
(lp5113
I3
a(lp5114
I1432
aaasVbill
p5115
(lp5116
(lp5117
I3
a(lp5118
I888
aaasVwhile
p5119
(lp5120
(lp5121
I3
a(lp5122
I86
aaa(lp5123
(lp5124
I5
a(lp5125
I665
aaaasVCold
p5126
(lp5127
(lp5128
I4
a(lp5129
I174
aaasVsevenyear
p5130
(lp5131
(lp5132
I5
a(lp5133
I46
aaasVtheres
p5134
(lp5135
(lp5136
I5
a(lp5137
I547
aaasVscheduled
p5138
(lp5139
(lp5140
I3
a(lp5141
I2280
aaa(lp5142
(lp5143
I4
a(lp5144
I782
aaaasVpound
p5145
(lp5146
(lp5147
I4
a(lp5148
I363
aI372
aI377
aI408
aI540
aaasVreads
p5149
(lp5150
(lp5151
I3
a(lp5152
I251
aaasVitself
p5153
(lp5154
(lp5155
I3
a(lp5156
I88
aI1961
aaasVseen
p5157
(lp5158
(lp5159
I3
a(lp5160
I274
aI2128
aaasVgovernment
p5161
(lp5162
(lp5163
I3
a(lp5164
I1
aI45
aI50
aI97
aI156
aI172
aI193
aI204
aI207
aI397
aI532
aI617
aI667
aI735
aI751
aI757
aI786
aI815
aI915
aI980
aI999
aI1024
aI1042
aI1103
aI1131
aI1187
aI1397
aI1438
aI1483
aI1586
aI1686
aI1707
aI1748
aI1777
aI1818
aI1879
aI1883
aI1975
aI2052
aI2101
aI2135
aI2149
aI2192
aI2194
aI2212
aaasV\u201cUPS
p5165
(lp5166
(lp5167
I5
a(lp5168
I506
aaasV\u201cWeve
p5169
(lp5170
(lp5171
I5
a(lp5172
I646
aaasVgrand
p5173
(lp5174
(lp5175
I5
a(lp5176
I424
aaasV6weekstoMars
p5177
(lp5178
(lp5179
I4
a(lp5180
I837
aaasVsell
p5181
(lp5182
(lp5183
I4
a(lp5184
I551
aaasVused
p5185
(lp5186
(lp5187
I3
a(lp5188
I490
aI1947
aI1965
aaa(lp5189
(lp5190
I5
a(lp5191
I337
aaaasVlawyers
p5192
(lp5193
(lp5194
I3
a(lp5195
I1491
aaasVbonus
p5196
(lp5197
(lp5198
I4
a(lp5199
I627
aaasVcomprehensive
p5200
(lp5201
(lp5202
I5
a(lp5203
I33
aaa(lp5204
(lp5205
I6
a(lp5206
I334
aaaasVSokov
p5207
(lp5208
(lp5209
I4
a(lp5210
I228
aI694
aI740
aI869
aaasVuser
p5211
(lp5212
(lp5213
I3
a(lp5214
I1146
aaasVrecent
p5215
(lp5216
(lp5217
I3
a(lp5218
I1933
aaasVlower
p5219
(lp5220
(lp5221
I4
a(lp5222
I505
aaasVolder
p5223
(lp5224
(lp5225
I3
a(lp5226
I1210
aaasVgranted\u201cThis
p5227
(lp5228
(lp5229
I3
a(lp5230
I537
aaasVperson
p5231
(lp5232
(lp5233
I3
a(lp5234
I2109
aaasVregulating
p5235
(lp5236
(lp5237
I3
a(lp5238
I2259
aaasVclearance
p5239
(lp5240
(lp5241
I6
a(lp5242
I285
aaasVstating
p5243
(lp5244
(lp5245
I3
a(lp5246
I2160
aaasVcoup
p5247
(lp5248
(lp5249
I6
a(lp5250
I518
aaasVpowering
p5251
(lp5252
(lp5253
I4
a(lp5254
I14
aI413
aaasV767
p5255
(lp5256
(lp5257
I5
a(lp5258
I57
aaasVquestions
p5259
(lp5260
(lp5261
I4
a(lp5262
I267
aaasVworld
p5263
(lp5264
(lp5265
I3
a(lp5266
I1832
aaa(lp5267
(lp5268
I5
a(lp5269
I251
aaaasVuseful
p5270
(lp5271
(lp5272
I6
a(lp5273
I43
aaasVreaders
p5274
(lp5275
(lp5276
I4
a(lp5277
I859
aaasVdiversions
p5278
(lp5279
(lp5280
I3
a(lp5281
I28
aaasVworkers
p5282
(lp5283
(lp5284
I5
a(lp5285
I282
aaa(lp5286
(lp5287
I6
a(lp5288
I297
aaaasVdeliberately
p5289
(lp5290
(lp5291
I3
a(lp5292
I37
aI308
aI1711
aaasVlocation
p5293
(lp5294
(lp5295
I3
a(lp5296
I1140
aaasVRobert
p5297
(lp5298
(lp5299
I4
a(lp5300
I381
aaasVcustomers
p5301
(lp5302
(lp5303
I3
a(lp5304
I889
aaa(lp5305
(lp5306
I5
a(lp5307
I40
aI273
aI347
aI407
aaaasVLast
p5308
(lp5309
(lp5310
I4
a(lp5311
I81
aaasVunlimited
p5312
(lp5313
(lp5314
I5
a(lp5315
I147
aaasVAir
p5316
(lp5317
(lp5318
I5
a(lp5319
I50
aaasVSystemNASAs
p5320
(lp5321
(lp5322
I4
a(lp5323
I417
aaasVCheeseman
p5324
(lp5325
(lp5326
I5
a(lp5327
I216
aI350
aI418
aaasVtovarisch
p5328
(lp5329
(lp5330
I4
a(lp5331
I947
aaasVsorting
p5332
(lp5333
(lp5334
I5
a(lp5335
I392
aaasVconfront
p5336
(lp5337
(lp5338
I3
a(lp5339
I333
aaasVCALEA
p5340
(lp5341
(lp5342
I3
a(lp5343
I687
aaasVcollect
p5344
(lp5345
(lp5346
I4
a(lp5347
I734
aaasVcontinue
p5348
(lp5349
(lp5350
I5
a(lp5351
I482
aaasVassistThe
p5352
(lp5353
(lp5354
I3
a(lp5355
I914
aaasVManagement
p5356
(lp5357
(lp5358
I6
a(lp5359
I269
aaasVoften
p5360
(lp5361
(lp5362
I4
a(lp5363
I680
aaasVsome
p5364
(lp5365
(lp5366
I3
a(lp5367
I165
aaa(lp5368
(lp5369
I4
a(lp5370
I277
aI302
aaaa(lp5371
(lp5372
I5
a(lp5373
I224
aI325
aI698
aaaa(lp5374
(lp5375
I6
a(lp5376
I41
aI480
aaaasVback
p5377
(lp5378
(lp5379
I3
a(lp5380
I1980
aaasVeyebrowraisingly
p5381
(lp5382
(lp5383
I4
a(lp5384
I794
aaasVincriminate
p5385
(lp5386
(lp5387
I3
a(lp5388
I1925
aI1967
aaasVstreaming
p5389
(lp5390
(lp5391
I5
a(lp5392
I149
aaasVvacate
p5393
(lp5394
(lp5395
I3
a(lp5396
I600
aaasVscale
p5397
(lp5398
(lp5399
I5
a(lp5400
I219
aI320
aI510
aaasV\u201csortation
p5401
(lp5402
(lp5403
I5
a(lp5404
I359
aaasVcontacts
p5405
(lp5406
(lp5407
I6
a(lp5408
I422
aaasVdecision
p5409
(lp5410
(lp5411
I3
a(lp5412
I436
aI1867
aaasVefficiencies
p5413
(lp5414
(lp5415
I5
a(lp5416
I414
aaasVeliminate
p5417
(lp5418
(lp5419
I3
a(lp5420
I467
aaasVinnovation
p5421
(lp5422
(lp5423
I5
a(lp5424
I511
aaasVbe
p5425
(lp5426
(lp5427
I3
a(lp5428
I189
aI373
aI864
aI911
aI938
aI1036
aI1060
aI1082
aI1098
aI1310
aI1408
aI1514
aI1559
aI1756
aI1795
aI1910
aI1946
aI1964
aI2127
aI2255
aaa(lp5429
(lp5430
I4
a(lp5431
I219
aI247
aI605
aI706
aI832
aI887
aI904
aaaa(lp5432
(lp5433
I5
a(lp5434
I336
aI427
aaaa(lp5435
(lp5436
I6
a(lp5437
I53
aI139
aI277
aI339
aI342
aI425
aI465
aI473
aI485
aaaasVcontinuing
p5438
(lp5439
(lp5440
I3
a(lp5441
I718
aaasVuse
p5442
(lp5443
(lp5444
I3
a(lp5445
I1690
aaa(lp5446
(lp5447
I4
a(lp5448
I295
aaaasVstep
p5449
(lp5450
(lp5451
I3
a(lp5452
I1327
aaasVdictated
p5453
(lp5454
(lp5455
I3
a(lp5456
I2158
aaasVRussia
p5457
(lp5458
(lp5459
I4
a(lp5460
I112
aaasVgoods
p5461
(lp5462
(lp5463
I5
a(lp5464
I271
aI448
aaasVRon
p5465
(lp5466
(lp5467
I3
a(lp5468
I724
aaasVmost
p5469
(lp5470
(lp5471
I3
a(lp5472
I1827
aaa(lp5473
(lp5474
I6
a(lp5475
I16
aaaasVBary
p5476
(lp5477
(lp5478
I6
a(lp5479
I225
aaasVnearterm
p5480
(lp5481
(lp5482
I4
a(lp5483
I670
aaasVquashed
p5484
(lp5485
(lp5486
I4
a(lp5487
I178
aaasVblock
p5488
(lp5489
(lp5490
I3
a(lp5491
I315
aaasVhometown
p5492
(lp5493
(lp5494
I6
a(lp5495
I79
aaasVinto
p5496
(lp5497
(lp5498
I3
a(lp5499
I474
aaa(lp5500
(lp5501
I4
a(lp5502
I188
aI643
aaaa(lp5503
(lp5504
I5
a(lp5505
I236
aI365
aI436
aaaasVwithin
p5506
(lp5507
(lp5508
I3
a(lp5509
I1026
aaasVretailer
p5510
(lp5511
(lp5512
I5
a(lp5513
I7
aaasVservices
p5514
(lp5515
(lp5516
I3
a(lp5517
I1141
aaa(lp5518
(lp5519
I5
a(lp5520
I444
aaaasVappropriate
p5521
(lp5522
(lp5523
I3
a(lp5524
I1362
aaasVtroubleshooting
p5525
(lp5526
(lp5527
I3
a(lp5528
I894
aaasVsaysuch
p5529
(lp5530
(lp5531
I3
a(lp5532
I2076
aaasVcomputer
p5533
(lp5534
(lp5535
I6
a(lp5536
I251
aaasVinsider
p5537
(lp5538
(lp5539
I6
a(lp5540
I7
aaasVquestion
p5541
(lp5542
(lp5543
I3
a(lp5544
I1287
aaasVspecifically
p5545
(lp5546
(lp5547
I3
a(lp5548
I611
aI1260
aI1296
aaasVoxidizer
p5549
(lp5550
(lp5551
I4
a(lp5552
I334
aaasV\u201cFrom
p5553
(lp5554
(lp5555
I6
a(lp5556
I433
aaasVarchaic
p5557
(lp5558
(lp5559
I3
a(lp5560
I70
aaasVrepeatedly
p5561
(lp5562
(lp5563
I3
a(lp5564
I1524
aaasVfiled
p5565
(lp5566
(lp5567
I3
a(lp5568
I57
aI102
aI228
aaasVsubsidiary
p5569
(lp5570
(lp5571
I5
a(lp5572
I303
aaasVraising
p5573
(lp5574
(lp5575
I3
a(lp5576
I1712
aaasVOffice
p5577
(lp5578
(lp5579
I6
a(lp5580
I266
aaasVbringEventually
p5581
(lp5582
(lp5583
I4
a(lp5584
I486
aaasVup
p5585
(lp5586
(lp5587
I3
a(lp5588
I2000
aaa(lp5589
(lp5590
I5
a(lp5591
I132
aaaa(lp5592
(lp5593
I6
a(lp5594
I96
aI178
aI479
aaaasVlifespan
p5595
(lp5596
(lp5597
I4
a(lp5598
I720
aaasVplanes
p5599
(lp5600
(lp5601
I5
a(lp5602
I198
aI334
aI458
aaasVNonproliferation
p5603
(lp5604
(lp5605
I4
a(lp5606
I237
aaasVstoring
p5607
(lp5608
(lp5609
I3
a(lp5610
I174
aaasVordered
p5611
(lp5612
(lp5613
I3
a(lp5614
I386
aI1769
aaasVPersonnel
p5615
(lp5616
(lp5617
I6
a(lp5618
I268
aaasVTo
p5619
(lp5620
(lp5621
I3
a(lp5622
I2163
aI2208
aaa(lp5623
(lp5624
I5
a(lp5625
I268
aaaasVsingle
p5626
(lp5627
(lp5628
I6
a(lp5629
I6
aaasVfactorytodoorstep
p5630
(lp5631
(lp5632
I5
a(lp5633
I34
aaasVdefines
p5634
(lp5635
(lp5636
I3
a(lp5637
I641
aaasVstreamlining
p5638
(lp5639
(lp5640
I5
a(lp5641
I118
aaasVTN
p5642
(lp5643
(lp5644
I4
a(lp5645
I392
aaasVapplication
p5646
(lp5647
(lp5648
I4
a(lp5649
I731
aaa(lp5650
(lp5651
I6
a(lp5652
I286
aaaasVpoliticians
p5653
(lp5654
(lp5655
I4
a(lp5656
I858
aaasVcoded
p5657
(lp5658
(lp5659
I3
a(lp5660
I1915
aaasV\u201cbut
p5661
(lp5662
(lp5663
I3
a(lp5664
I1440
aaasVdepartment
p5665
(lp5666
(lp5667
I6
a(lp5668
I308
aaasVfreighter
p5669
(lp5670
(lp5671
I5
a(lp5672
I58
aaasVnice
p5673
(lp5674
(lp5675
I3
a(lp5676
I1061
aaasVvenerable
p5677
(lp5678
(lp5679
I3
a(lp5680
I147
aaasVusers
p5681
(lp5682
(lp5683
I3
a(lp5684
I179
aI350
aI1223
aaasVreportedly
p5685
(lp5686
(lp5687
I3
a(lp5688
I1207
aaa(lp5689
(lp5690
I5
a(lp5691
I306
aaaasVrobots
p5692
(lp5693
(lp5694
I5
a(lp5695
I288
aaasVhelping
p5696
(lp5697
(lp5698
I3
a(lp5699
I1877
aaasVago
p5700
(lp5701
(lp5702
I6
a(lp5703
I201
aaasVvice
p5704
(lp5705
(lp5706
I5
a(lp5707
I471
aaasVAh
p5708
(lp5709
(lp5710
I4
a(lp5711
I172
aaasVage
p5712
(lp5713
(lp5714
I4
a(lp5715
I56
aaasVrequired
p5716
(lp5717
(lp5718
I3
a(lp5719
I816
aaasVorbit
p5720
(lp5721
(lp5722
I4
a(lp5723
I645
aI922
aaasVresponded
p5724
(lp5725
(lp5726
I3
a(lp5727
I214
aI1579
aI1779
aaasVAs
p5728
(lp5729
(lp5730
I3
a(lp5731
I895
aaa(lp5732
(lp5733
I5
a(lp5734
I570
aaaa(lp5735
(lp5736
I6
a(lp5737
I0
aaaasVAt
p5738
(lp5739
(lp5740
I4
a(lp5741
I8
aaa(lp5742
(lp5743
I5
a(lp5744
I318
aI595
aaaasVleak
p5745
(lp5746
(lp5747
I6
a(lp5748
I26
aI142
aI207
aI299
aI511
aaasVinternational
p5749
(lp5750
(lp5751
I4
a(lp5752
I890
aaasVSoviets
p5753
(lp5754
(lp5755
I4
a(lp5756
I186
aI572
aaasVrequires
p5757
(lp5758
(lp5759
I5
a(lp5760
I222
aI323
aaasVobjected
p5761
(lp5762
(lp5763
I3
a(lp5764
I842
aaasVcode
p5765
(lp5766
(lp5767
I3
a(lp5768
I949
aI1086
aI1116
aI2039
aI2147
aaasVissued
p5769
(lp5770
(lp5771
I3
a(lp5772
I452
aaasVexisting
p5773
(lp5774
(lp5775
I3
a(lp5776
I1569
aaa(lp5777
(lp5778
I5
a(lp5779
I658
aaaasVDepartment
p5780
(lp5781
(lp5782
I3
a(lp5783
I542
aI1495
aaasVcenters
p5784
(lp5785
(lp5786
I5
a(lp5787
I244
aI344
aI360
aaasVissues
p5788
(lp5789
(lp5790
I3
a(lp5791
I7
aI335
aI411
aaasVseemed
p5792
(lp5793
(lp5794
I3
a(lp5795
I1347
aaasVlongstanding
p5796
(lp5797
(lp5798
I3
a(lp5799
I144
aaasVagencys
p5800
(lp5801
(lp5802
I4
a(lp5803
I423
aaasVhelps
p5804
(lp5805
(lp5806
I5
a(lp5807
I404
aaasVquarterly
p5808
(lp5809
(lp5810
I5
a(lp5811
I175
aaasVhints
p5812
(lp5813
(lp5814
I4
a(lp5815
I275
aaasVresources
p5816
(lp5817
(lp5818
I5
a(lp5819
I235
aI699
aaa(lp5820
(lp5821
I6
a(lp5822
I307
aaaasV\u200bWe
p5823
(lp5824
(lp5825
I5
a(lp5826
I693
aaasVtelling
p5827
(lp5828
(lp5829
I3
a(lp5830
I366
aaasVnotes
p5831
(lp5832
(lp5833
I3
a(lp5834
I2053
aaasVrace
p5835
(lp5836
(lp5837
I3
a(lp5838
I2231
aaasVnoted
p5839
(lp5840
(lp5841
I3
a(lp5842
I1281
aaasVlogistics
p5843
(lp5844
(lp5845
I4
a(lp5846
I71
aaa(lp5847
(lp5848
I5
a(lp5849
I228
aI329
aI494
aI654
aaaasVsmaller
p5850
(lp5851
(lp5852
I6
a(lp5853
I247
aaasVpunishing
p5854
(lp5855
(lp5856
I6
a(lp5857
I319
aaasVwrestling
p5858
(lp5859
(lp5860
I3
a(lp5861
I1284
aaasVrecruitment
p5862
(lp5863
(lp5864
I6
a(lp5865
I421
aaasVState
p5866
(lp5867
(lp5868
I6
a(lp5869
I313
aaasVvideo
p5870
(lp5871
(lp5872
I3
a(lp5873
I1123
aaa(lp5874
(lp5875
I5
a(lp5876
I148
aaaasVMusks
p5877
(lp5878
(lp5879
I4
a(lp5880
I519
aaasVpower
p5881
(lp5882
(lp5883
I3
a(lp5884
I554
aI618
aI978
aI1436
aI1633
aI1644
aaa(lp5885
(lp5886
I4
a(lp5887
I722
aaaasVgiving
p5888
(lp5889
(lp5890
I3
a(lp5891
I1297
aaasVexpressed
p5892
(lp5893
(lp5894
I5
a(lp5895
I497
aaasVaccess
p5896
(lp5897
(lp5898
I3
a(lp5899
I195
aI320
aaasVNow
p5900
(lp5901
(lp5902
I6
a(lp5903
I19
aaasVAmerica
p5904
(lp5905
(lp5906
I4
a(lp5907
I553
aaasVexercise
p5908
(lp5909
(lp5910
I3
a(lp5911
I1423
aaasVcommercial
p5912
(lp5913
(lp5914
I3
a(lp5915
I2123
aaasVambit
p5916
(lp5917
(lp5918
I3
a(lp5919
I1028
aaasVdefector
p5920
(lp5921
(lp5922
I6
a(lp5923
I46
aaasVseparation
p5924
(lp5925
(lp5926
I3
a(lp5927
I520
aaasVothers
p5928
(lp5929
(lp5930
I4
a(lp5931
I861
aaasVgreat
p5932
(lp5933
(lp5934
I4
a(lp5935
I136
aI658
aaasVlikened
p5936
(lp5937
(lp5938
I3
a(lp5939
I362
aaasVChinese
p5940
(lp5941
(lp5942
I3
a(lp5943
I171
aI178
aI192
aaasVargumentsAs
p5944
(lp5945
(lp5946
I3
a(lp5947
I2028
aaasVtechnical
p5948
(lp5949
(lp5950
I3
a(lp5951
I39
aI823
aI852
aaa(lp5952
(lp5953
I4
a(lp5954
I139
aaaasVinvolved
p5955
(lp5956
(lp5957
I6
a(lp5958
I244
aaasVlarger
p5959
(lp5960
(lp5961
I5
a(lp5962
I27
aaasV37
p5963
(lp5964
(lp5965
I5
a(lp5966
I580
aaasVleaving
p5967
(lp5968
(lp5969
I3
a(lp5970
I2137
aaasVmaneuverability
p5971
(lp5972
(lp5973
I4
a(lp5974
I728
aaasVproducts
p5975
(lp5976
(lp5977
I3
a(lp5978
I347
aaasV\u201cbecause
p5979
(lp5980
(lp5981
I3
a(lp5982
I2103
aaasV\u201cIn
p5983
(lp5984
(lp5985
I3
a(lp5986
I264
aaasVmakes
p5987
(lp5988
(lp5989
I6
a(lp5990
I177
aaasVmaker
p5991
(lp5992
(lp5993
I3
a(lp5994
I1114
aaasV200yearold
p5995
(lp5996
(lp5997
I3
a(lp5998
I768
aaasVthats
p5999
(lp6000
(lp6001
I4
a(lp6002
I528
aaa(lp6003
(lp6004
I6
a(lp6005
I477
aaaasVzipcodes
p6006
(lp6007
(lp6008
I5
a(lp6009
I370
aaasVcomplying
p6010
(lp6011
(lp6012
I3
a(lp6013
I62
aI1784
aaasVAssistance
p6014
(lp6015
(lp6016
I3
a(lp6017
I630
aaasVoutcomes
p6018
(lp6019
(lp6020
I4
a(lp6021
I437
aaasVnames
p6022
(lp6023
(lp6024
I3
a(lp6025
I2174
aaa(lp6026
(lp6027
I6
a(lp6028
I76
aaaasVapply
p6029
(lp6030
(lp6031
I3
a(lp6032
I966
aaa(lp6033
(lp6034
I4
a(lp6035
I893
aaaasVconfidence
p6036
(lp6037
(lp6038
I5
a(lp6039
I498
aaasVfrom
p6040
(lp6041
(lp6042
I3
a(lp6043
I352
aI694
aI736
aI829
aI1004
aI1064
aI1104
aI1516
aI1561
aI1718
aI2015
aI2202
aI2223
aaa(lp6044
(lp6045
I4
a(lp6046
I61
aI318
aI690
aI857
aI910
aaaa(lp6047
(lp6048
I5
a(lp6049
I342
aI449
aaaa(lp6050
(lp6051
I6
a(lp6052
I194
aI360
aaaasVfew
p6053
(lp6054
(lp6055
I3
a(lp6056
I1803
aaasVcamera
p6057
(lp6058
(lp6059
I3
a(lp6060
I1124
aaasVvehicle
p6061
(lp6062
(lp6063
I4
a(lp6064
I787
aaasVbillionAnd
p6065
(lp6066
(lp6067
I4
a(lp6068
I819
aaasVsort
p6069
(lp6070
(lp6071
I4
a(lp6072
I278
aaasVstarted
p6073
(lp6074
(lp6075
I4
a(lp6076
I156
aaasVsatellitesnot
p6077
(lp6078
(lp6079
I4
a(lp6080
I202
aaasVvisibility
p6081
(lp6082
(lp6083
I4
a(lp6084
I853
aaasVsubscription
p6085
(lp6086
(lp6087
I5
a(lp6088
I136
aaasVcustomer
p6089
(lp6090
(lp6091
I3
a(lp6092
I659
aaa(lp6093
(lp6094
I5
a(lp6095
I340
aI383
aI537
aaaasVMonterey
p6096
(lp6097
(lp6098
I4
a(lp6099
I240
aaasVRegardless
p6100
(lp6101
(lp6102
I3
a(lp6103
I1229
aaasVthis
p6104
(lp6105
(lp6106
I3
a(lp6107
I873
aI992
aI1094
aI1691
aI1857
aI2210
aI2235
aaa(lp6108
(lp6109
I4
a(lp6110
I865
aaaa(lp6111
(lp6112
I5
a(lp6113
I117
aI432
aaaa(lp6114
(lp6115
I6
a(lp6116
I256
aI438
aI489
aI558
aaaasVstrategically
p6117
(lp6118
(lp6119
I5
a(lp6120
I253
aaasVAppleThe
p6121
(lp6122
(lp6123
I3
a(lp6124
I2131
aaasVobvious
p6125
(lp6126
(lp6127
I5
a(lp6128
I549
aaasVof
p6129
(lp6130
(lp6131
I3
a(lp6132
I61
aI93
aI112
aI124
aI154
aI167
aI177
aI239
aI244
aI248
aI267
aI301
aI389
aI412
aI433
aI493
aI521
aI543
aI578
aI580
aI582
aI720
aI765
aI797
aI878
aI952
aI977
aI1029
aI1212
aI1230
aI1233
aI1318
aI1337
aI1343
aI1382
aI1413
aI1424
aI1431
aI1434
aI1444
aI1475
aI1542
aI1592
aI1606
aI1681
aI1710
aI1774
aI1806
aI1823
aI1864
aI1888
aI1917
aI1952
aI1959
aI2018
aI2046
aI2058
aI2230
aaa(lp6133
(lp6134
I4
a(lp6135
I32
aI54
aI118
aI141
aI149
aI259
aI279
aI331
aI364
aI373
aI378
aI401
aI409
aI431
aI438
aI535
aI622
aI711
aI746
aI808
aI828
aI847
aaaa(lp6136
(lp6137
I5
a(lp6138
I81
aI106
aI126
aI156
aI207
aI225
aI242
aI256
aI278
aI280
aI326
aI390
aI439
aI447
aI473
aI502
aI589
aI651
aI685
aaaa(lp6139
(lp6140
I6
a(lp6141
I13
aI27
aI58
aI66
aI94
aI112
aI143
aI153
aI161
aI181
aI197
aI214
aI242
aI249
aI267
aI292
aI309
aI382
aI397
aI440
aI495
aI560
aaaasVmeet
p6142
(lp6143
(lp6144
I3
a(lp6145
I1416
aaasVdidnt
p6146
(lp6147
(lp6148
I3
a(lp6149
I847
aI1635
aaa(lp6150
(lp6151
I6
a(lp6152
I499
aaaasVthirsty
p6153
(lp6154
(lp6155
I4
a(lp6156
I565
aaasVprocess
p6157
(lp6158
(lp6159
I6
a(lp6160
I93
aaasVpurposes
p6161
(lp6162
(lp6163
I3
a(lp6164
I884
aaa(lp6165
(lp6166
I4
a(lp6167
I848
aaaasVPolicy
p6168
(lp6169
(lp6170
I6
a(lp6171
I375
aaasVfulfillment
p6172
(lp6173
(lp6174
I5
a(lp6175
I243
aI343
aaasVsought
p6176
(lp6177
(lp6178
I3
a(lp6179
I901
aI1237
aaasV\u201cWhich
p6180
(lp6181
(lp6182
I4
a(lp6183
I357
aaasVcouriersas
p6184
(lp6185
(lp6186
I5
a(lp6187
I284
aaasVsix
p6188
(lp6189
(lp6190
I3
a(lp6191
I1805
aaasV\u201cincludes
p6192
(lp6193
(lp6194
I3
a(lp6195
I2169
aaasViPhoneIn
p6196
(lp6197
(lp6198
I3
a(lp6199
I1702
aaasVstruggled
p6200
(lp6201
(lp6202
I5
a(lp6203
I602
aaasVcontraption
p6204
(lp6205
(lp6206
I4
a(lp6207
I216
aaasV\u201cThere
p6208
(lp6209
(lp6210
I6
a(lp6211
I471
aaasVBritish
p6212
(lp6213
(lp6214
I6
a(lp6215
I118
aI221
aaasVSpecific
p6216
(lp6217
(lp6218
I4
a(lp6219
I355
aaasVApple
p6220
(lp6221
(lp6222
I3
a(lp6223
I10
aI35
aI63
aI162
aI187
aI235
aI307
aI330
aI365
aI404
aI458
aI507
aI569
aI587
aI603
aI740
aI776
aI925
aI941
aI956
aI1005
aI1050
aI1080
aI1110
aI1147
aI1164
aI1176
aI1190
aI1370
aI1578
aI1709
aI1754
aI1972
aI2010
aI2140
aI2154
aI2179
aI2198
aaasVspiesAs
p6224
(lp6225
(lp6226
I3
a(lp6227
I355
aaasVOne
p6228
(lp6229
(lp6230
I4
a(lp6231
I948
aaasVchief
p6232
(lp6233
(lp6234
I3
a(lp6235
I256
aaasVallow
p6236
(lp6237
(lp6238
I3
a(lp6239
I749
aI1611
aaa(lp6240
(lp6241
I4
a(lp6242
I708
aaaasVExpensive
p6243
(lp6244
(lp6245
I4
a(lp6246
I541
aaasVfastest
p6247
(lp6248
(lp6249
I4
a(lp6250
I322
aaasVmove
p6251
(lp6252
(lp6253
I5
a(lp6254
I22
aI64
aI89
aaasVinterpreted
p6255
(lp6256
(lp6257
I3
a(lp6258
I1311
aaasVincluding
p6259
(lp6260
(lp6261
I3
a(lp6262
I1564
aaa(lp6263
(lp6264
I4
a(lp6265
I849
aaaa(lp6266
(lp6267
I6
a(lp6268
I62
aaaasVsubpoenaed
p6269
(lp6270
(lp6271
I3
a(lp6272
I2082
aaasVvilify
p6273
(lp6274
(lp6275
I3
a(lp6276
I329
aaasVchemical
p6277
(lp6278
(lp6279
I4
a(lp6280
I304
aI319
aI323
aI332
aI411
aI446
aI590
aaasVchosen
p6281
(lp6282
(lp6283
I3
a(lp6284
I1261
aaasVships
p6285
(lp6286
(lp6287
I5
a(lp6288
I312
aI460
aaasV$99ayear
p6289
(lp6290
(lp6291
I5
a(lp6292
I135
aaasV2014
p6293
(lp6294
(lp6295
I3
a(lp6296
I730
aaasV2010
p6297
(lp6298
(lp6299
I4
a(lp6300
I779
aaasVgreater
p6301
(lp6302
(lp6303
I3
a(lp6304
I1002
aaasVdescendants
p6305
(lp6306
(lp6307
I4
a(lp6308
I521
aaasVpractice
p6309
(lp6310
(lp6311
I3
a(lp6312
I268
aaasViPhone
p6313
(lp6314
(lp6315
I3
a(lp6316
I24
aI489
aI926
aI1151
aI2203
aaasVsatellites
p6317
(lp6318
(lp6319
I4
a(lp6320
I159
aI718
aaasVapplicants
p6321
(lp6322
(lp6323
I6
a(lp6324
I389
aaasVworlds
p6325
(lp6326
(lp6327
I5
a(lp6328
I4
aaasVSupreme
p6329
(lp6330
(lp6331
I3
a(lp6332
I855
aI1503
aI1521
aI2215
aaasVSan
p6333
(lp6334
(lp6335
I3
a(lp6336
I22
aI495
aI783
aI1393
aI2020
aaasVrockets
p6337
(lp6338
(lp6339
I4
a(lp6340
I324
aI591
aI911
aaasVtruth
p6341
(lp6342
(lp6343
I3
a(lp6344
I2089
aaasVdoing
p6345
(lp6346
(lp6347
I3
a(lp6348
I1682
aI1921
aaasVglobe
p6349
(lp6350
(lp6351
I3
a(lp6352
I586
aaasVsecretive
p6353
(lp6354
(lp6355
I6
a(lp6356
I17
aaasVWhich
p6357
(lp6358
(lp6359
I4
a(lp6360
I282
aI601
aaasVour
p6361
(lp6362
(lp6363
I3
a(lp6364
I134
aI137
aaa(lp6365
(lp6366
I5
a(lp6367
I218
aI226
aI319
aI327
aI652
aI657
aI686
aI701
aaaasVspecial
p6368
(lp6369
(lp6370
I3
a(lp6371
I462
aI1193
aaasVout
p6372
(lp6373
(lp6374
I3
a(lp6375
I605
aI1618
aI1637
aaa(lp6376
(lp6377
I5
a(lp6378
I31
aI108
aI364
aaaa(lp6379
(lp6380
I6
a(lp6381
I88
aI394
aaaasVsimilarly
p6382
(lp6383
(lp6384
I6
a(lp6385
I303
aaasVChina
p6386
(lp6387
(lp6388
I3
a(lp6389
I360
aaa(lp6390
(lp6391
I5
a(lp6392
I314
aI450
aaaa(lp6393
(lp6394
I6
a(lp6395
I280
aaaasVsocalled
p6396
(lp6397
(lp6398
I6
a(lp6399
I311
aaasVannounced
p6400
(lp6401
(lp6402
I4
a(lp6403
I88
aaasVThis
p6404
(lp6405
(lp6406
I3
a(lp6407
I426
aaa(lp6408
(lp6409
I5
a(lp6410
I352
aaaa(lp6411
(lp6412
I6
a(lp6413
I298
aaaasVinterplanetary
p6414
(lp6415
(lp6416
I4
a(lp6417
I204
aI524
aaasVcompletely
p6418
(lp6419
(lp6420
I4
a(lp6421
I905
aaasVthrust
p6422
(lp6423
(lp6424
I4
a(lp6425
I326
aI341
aI379
aI432
aI490
aaasVSenator
p6426
(lp6427
(lp6428
I3
a(lp6429
I723
aaasVcrashed
p6430
(lp6431
(lp6432
I4
a(lp6433
I933
aaasVcould
p6434
(lp6435
(lp6436
I3
a(lp6437
I863
aI910
aI995
aI1909
aI1945
aaa(lp6438
(lp6439
I4
a(lp6440
I596
aI667
aI831
aaaa(lp6441
(lp6442
I6
a(lp6443
I32
aI316
aI341
aI391
aI458
aI484
aI512
aaaasVkeep
p6444
(lp6445
(lp6446
I3
a(lp6447
I349
aaa(lp6448
(lp6449
I4
a(lp6450
I689
aaaasVDOregon
p6451
(lp6452
(lp6453
I3
a(lp6454
I726
aaasVbarriers
p6455
(lp6456
(lp6457
I3
a(lp6458
I40
aI1714
aI1730
aI2201
aaasVretain
p6459
(lp6460
(lp6461
I3
a(lp6462
I704
aaasVsaidThe
p6463
(lp6464
(lp6465
I3
a(lp6466
I2193
aaasVtechsavvy
p6467
(lp6468
(lp6469
I3
a(lp6470
I1828
aaasVyearmaking
p6471
(lp6472
(lp6473
I5
a(lp6474
I586
aaasVlegislative
p6475
(lp6476
(lp6477
I3
a(lp6478
I1529
aaasVSnowden
p6479
(lp6480
(lp6481
I6
a(lp6482
I1
aaasVDistrict
p6483
(lp6484
(lp6485
I3
a(lp6486
I106
aI111
aaasVprivacy
p6487
(lp6488
(lp6489
I3
a(lp6490
I6
aI95
aI576
aaasVdata
p6491
(lp6492
(lp6493
I3
a(lp6494
I176
aI197
aI502
aI626
aI665
aI1185
aI1228
aI1490
aI1881
aaa(lp6495
(lp6496
I6
a(lp6497
I11
aI61
aI72
aI415
aI457
aaaasVsystem
p6498
(lp6499
(lp6500
I3
a(lp6501
I1215
aI2062
aaa(lp6502
(lp6503
I5
a(lp6504
I36
aI241
aaaasVrelations
p6505
(lp6506
(lp6507
I5
a(lp6508
I475
aaasVbackdoor
p6509
(lp6510
(lp6511
I3
a(lp6512
I1695
aI1699
aaasVaccessed
p6513
(lp6514
(lp6515
I6
a(lp6516
I281
aaasVspaceship
p6517
(lp6518
(lp6519
I4
a(lp6520
I310
aI635
aaasVinterests
p6521
(lp6522
(lp6523
I3
a(lp6524
I577
aaasVenforcement
p6525
(lp6526
(lp6527
I3
a(lp6528
I317
aI650
aaa(lp6529
(lp6530
I6
a(lp6531
I130
aI410
aaaasVphoneBut
p6532
(lp6533
(lp6534
I3
a(lp6535
I506
aaasV\u201cOne
p6536
(lp6537
(lp6538
I4
a(lp6539
I729
aaasVdiscriminating
p6540
(lp6541
(lp6542
I3
a(lp6543
I2224
aaasVvisited
p6544
(lp6545
(lp6546
I6
a(lp6547
I385
aaasVproviding
p6548
(lp6549
(lp6550
I3
a(lp6551
I190
aaa(lp6552
(lp6553
I5
a(lp6554
I442
aaaasVlastmile
p6555
(lp6556
(lp6557
I5
a(lp6558
I376
aaasVcollecting
p6559
(lp6560
(lp6561
I3
a(lp6562
I872
aaasVfalse
p6563
(lp6564
(lp6565
I3
a(lp6566
I120
aI288
aaasV\u201cApples
p6567
(lp6568
(lp6569
I3
a(lp6570
I115
aaasVhave
p6571
(lp6572
(lp6573
I3
a(lp6574
I561
aI715
aI1063
aI1630
aaa(lp6575
(lp6576
I4
a(lp6577
I361
aI637
aI668
aI754
aI784
aI873
aaaa(lp6578
(lp6579
I5
a(lp6580
I420
aI694
aaaa(lp6581
(lp6582
I6
a(lp6583
I22
aI302
aI317
aaaasVneed
p6584
(lp6585
(lp6586
I3
a(lp6587
I1202
aI1798
aaa(lp6588
(lp6589
I4
a(lp6590
I463
aI484
aI673
aaaa(lp6591
(lp6592
I5
a(lp6593
I690
aaaasVturn
p6594
(lp6595
(lp6596
I3
a(lp6597
I1118
aI1138
aaa(lp6598
(lp6599
I5
a(lp6600
I431
aaaasVapparently
p6601
(lp6602
(lp6603
I6
a(lp6604
I86
aaasVmicrophone
p6605
(lp6606
(lp6607
I3
a(lp6608
I1121
aaasV\u201cCongress
p6609
(lp6610
(lp6611
I3
a(lp6612
I2217
aaasVable
p6613
(lp6614
(lp6615
I3
a(lp6616
I131
aI1838
aI1997
aaa(lp6617
(lp6618
I4
a(lp6619
I606
aaaa(lp6620
(lp6621
I5
a(lp6622
I681
aaaasVgravity
p6623
(lp6624
(lp6625
I4
a(lp6626
I629
aaasVfissionpowered
p6627
(lp6628
(lp6629
I4
a(lp6630
I158
aaasVwhich
p6631
(lp6632
(lp6633
I3
a(lp6634
I645
aI700
aI772
aI1537
aI1894
aI1936
aaa(lp6635
(lp6636
I4
a(lp6637
I28
aI167
aI494
aI776
aI830
aaaa(lp6638
(lp6639
I6
a(lp6640
I273
aI390
aaaasVworldwide
p6641
(lp6642
(lp6643
I5
a(lp6644
I165
aI189
aaasV25000
p6645
(lp6646
(lp6647
I6
a(lp6648
I192
aaasVwho
p6649
(lp6650
(lp6651
I3
a(lp6652
I1602
aaa(lp6653
(lp6654
I4
a(lp6655
I862
aaaa(lp6656
(lp6657
I5
a(lp6658
I130
aI378
aaaa(lp6659
(lp6660
I6
a(lp6661
I231
aaaasVcracking
p6662
(lp6663
(lp6664
I3
a(lp6665
I781
aaasVdevice
p6666
(lp6667
(lp6668
I3
a(lp6669
I1127
aI1308
aI1374
aaasVwhy
p6670
(lp6671
(lp6672
I4
a(lp6673
I496
aI833
aaasVstatute
p6674
(lp6675
(lp6676
I3
a(lp6677
I762
aI846
aI1293
aI1339
aI1346
aI1545
aI1598
aaasVconsequences
p6678
(lp6679
(lp6680
I6
a(lp6681
I321
aaasVagencies
p6682
(lp6683
(lp6684
I6
a(lp6685
I35
aI348
aI411
aaasVEarth
p6686
(lp6687
(lp6688
I4
a(lp6689
I693
aI926
aaasVfact
p6690
(lp6691
(lp6692
I3
a(lp6693
I33
aI1290
aI1677
aI2132
aI2233
aaa(lp6694
(lp6695
I6
a(lp6696
I210
aaaasV\u2018necessary
p6697
(lp6698
(lp6699
I3
a(lp6700
I1021
aaasVMatt
p6701
(lp6702
(lp6703
I6
a(lp6704
I253
aaasVviolation
p6705
(lp6706
(lp6707
I3
a(lp6708
I2045
aaasVencrypted
p6709
(lp6710
(lp6711
I3
a(lp6712
I745
aI1227
aaasVagreed
p6713
(lp6714
(lp6715
I3
a(lp6716
I1162
aaasVChemical
p6717
(lp6718
(lp6719
I4
a(lp6720
I342
aaasVbring
p6721
(lp6722
(lp6723
I5
a(lp6724
I379
aaasVUnder
p6725
(lp6726
(lp6727
I3
a(lp6728
I627
aaasVpartners
p6729
(lp6730
(lp6731
I5
a(lp6732
I628
aI642
aI659
aaasVinspiring
p6733
(lp6734
(lp6735
I4
a(lp6736
I660
aaasVholistic
p6737
(lp6738
(lp6739
I6
a(lp6740
I493
aaasVbased
p6741
(lp6742
(lp6743
I4
a(lp6744
I350
aaa(lp6745
(lp6746
I6
a(lp6747
I278
aaaasVshould
p6748
(lp6749
(lp6750
I3
a(lp6751
I1326
aI2254
aaa(lp6752
(lp6753
I4
a(lp6754
I217
aaaasVdreamers
p6755
(lp6756
(lp6757
I4
a(lp6758
I662
aaasVYork
p6759
(lp6760
(lp6761
I3
a(lp6762
I792
aI818
aI840
aI1155
aI1199
aaasVfuel
p6763
(lp6764
(lp6765
I4
a(lp6766
I73
aI105
aI365
aI374
aI461
aI468
aI482
aI525
aI566
aI612
aI639
aaasVthousands
p6767
(lp6768
(lp6769
I5
a(lp6770
I279
aaasVachieve
p6771
(lp6772
(lp6773
I4
a(lp6774
I115
aaasVmeant
p6775
(lp6776
(lp6777
I3
a(lp6778
I1609
aaasVhandle
p6779
(lp6780
(lp6781
I5
a(lp6782
I683
aaasVmeans
p6783
(lp6784
(lp6785
I3
a(lp6786
I2250
aaa(lp6787
(lp6788
I4
a(lp6789
I358
aI602
aI765
aaaasVareas
p6790
(lp6791
(lp6792
I5
a(lp6793
I262
aaasVtrucks
p6794
(lp6795
(lp6796
I5
a(lp6797
I294
aI457
aaasVhiring
p6798
(lp6799
(lp6800
I3
a(lp6801
I2226
aaasVrapper
p6802
(lp6803
(lp6804
I6
a(lp6805
I223
aaasVWall
p6806
(lp6807
(lp6808
I5
a(lp6809
I169
aaasVstuff
p6810
(lp6811
(lp6812
I4
a(lp6813
I306
aaasVcontain
p6814
(lp6815
(lp6816
I6
a(lp6817
I211
aaasVexists
p6818
(lp6819
(lp6820
I3
a(lp6821
I1295
aaasVnational
p6822
(lp6823
(lp6824
I4
a(lp6825
I84
aaasVoperates
p6826
(lp6827
(lp6828
I6
a(lp6829
I536
aaasVaccused
p6830
(lp6831
(lp6832
I3
a(lp6833
I1708
aaasVmerits
p6834
(lp6835
(lp6836
I3
a(lp6837
I300
aaasVsubcommittee
p6838
(lp6839
(lp6840
I4
a(lp6841
I404
aaasVcloser
p6842
(lp6843
(lp6844
I5
a(lp6845
I259
aI345
aaasVplaced
p6846
(lp6847
(lp6848
I5
a(lp6849
I254
aaasVBernardino
p6850
(lp6851
(lp6852
I3
a(lp6853
I23
aI496
aI784
aI1394
aI2021
aaasVnuclear
p6854
(lp6855
(lp6856
I4
a(lp6857
I85
aI93
aI143
aI180
aI215
aI260
aI546
aI702
aI759
aI895
aaasVfavor
p6858
(lp6859
(lp6860
I5
a(lp6861
I80
aI105
aaasVstate
p6862
(lp6863
(lp6864
I3
a(lp6865
I79
aaasVability
p6866
(lp6867
(lp6868
I3
a(lp6869
I564
aI706
aaasVdeliver
p6870
(lp6871
(lp6872
I5
a(lp6873
I604
aaasVextolling
p6874
(lp6875
(lp6876
I3
a(lp6877
I87
aaasVRace
p6878
(lp6879
(lp6880
I4
a(lp6881
I580
aaasVkey
p6882
(lp6883
(lp6884
I3
a(lp6885
I686
aaasVthatHe
p6886
(lp6887
(lp6888
I3
a(lp6889
I1683
aaasVtrove
p6890
(lp6891
(lp6892
I6
a(lp6893
I445
aaasVKennedyHe
p6894
(lp6895
(lp6896
I3
a(lp6897
I393
aaasVgrounds
p6898
(lp6899
(lp6900
I3
a(lp6901
I516
aaasVISISs
p6902
(lp6903
(lp6904
I6
a(lp6905
I59
aaasV\u201cA
p6906
(lp6907
(lp6908
I4
a(lp6909
I214
aaasVrespect
p6910
(lp6911
(lp6912
I3
a(lp6913
I425
aaasVpackages
p6914
(lp6915
(lp6916
I5
a(lp6917
I341
aI356
aI381
aI605
aaasVpoured
p6918
(lp6919
(lp6920
I5
a(lp6921
I234
aaasVtreat
p6922
(lp6923
(lp6924
I3
a(lp6925
I418
aaasVwaste
p6926
(lp6927
(lp6928
I4
a(lp6929
I939
aaasVtyranny
p6930
(lp6931
(lp6932
I3
a(lp6933
I1765
aaasVCenter
p6934
(lp6935
(lp6936
I4
a(lp6937
I235
aaasVcaseHe
p6938
(lp6939
(lp6940
I3
a(lp6941
I303
aaasVan
p6942
(lp6943
(lp6944
I3
a(lp6945
I237
aI253
aI324
aI453
aI488
aI696
aI1209
aI1313
aI1366
aI1377
aI1429
aI1442
aI1540
aI2238
aaa(lp6946
(lp6947
I5
a(lp6948
I296
aI517
aaaa(lp6949
(lp6950
I6
a(lp6951
I195
aaaasVpresent
p6952
(lp6953
(lp6954
I3
a(lp6955
I969
aaasVAnd
p6956
(lp6957
(lp6958
I4
a(lp6959
I475
aI527
aaa(lp6960
(lp6961
I6
a(lp6962
I405
aaaasVthereBut
p6963
(lp6964
(lp6965
I3
a(lp6966
I1386
aaasVharder
p6967
(lp6968
(lp6969
I4
a(lp6970
I550
aaasVvalue
p6971
(lp6972
(lp6973
I5
a(lp6974
I538
aaasVwill
p6975
(lp6976
(lp6977
I3
a(lp6978
I2126
aI2236
aaa(lp6979
(lp6980
I4
a(lp6981
I38
aI96
aI246
aI370
aI756
aaaa(lp6982
(lp6983
I5
a(lp6984
I335
aI353
aI416
aI481
aaaa(lp6985
(lp6986
I6
a(lp6987
I412
aaaasVoptimistic
p6988
(lp6989
(lp6990
I5
a(lp6991
I411
aaasVlightweight
p6992
(lp6993
(lp6994
I4
a(lp6995
I200
aaasVYou
p6996
(lp6997
(lp6998
I4
a(lp6999
I0
aaasVcontention
p7000
(lp7001
(lp7002
I3
a(lp7003
I2031
aaasVorbital
p7004
(lp7005
(lp7006
I4
a(lp7007
I201
aI713
aaasVterrorist
p7008
(lp7009
(lp7010
I6
a(lp7011
I39
aaasVperhaps
p7012
(lp7013
(lp7014
I3
a(lp7015
I1811
aaa(lp7016
(lp7017
I4
a(lp7018
I748
aaaasVbegan
p7019
(lp7020
(lp7021
I4
a(lp7022
I777
aaasVviews
p7023
(lp7024
(lp7025
I3
a(lp7026
I1664
aaasVradiation
p7027
(lp7028
(lp7029
I4
a(lp7030
I34
aaasVlargest
p7031
(lp7032
(lp7033
I5
a(lp7034
I5
aaasVparty
p7035
(lp7036
(lp7037
I3
a(lp7038
I1016
aaasVdifficult
p7039
(lp7040
(lp7041
I5
a(lp7042
I541
aaa(lp7043
(lp7044
I6
a(lp7045
I526
aI550
aaaasVspell
p7046
(lp7047
(lp7048
I3
a(lp7049
I1636
aaasVupon
p7050
(lp7051
(lp7052
I3
a(lp7053
I1447
aI2064
aaasVOrder
p7054
(lp7055
(lp7056
I3
a(lp7057
I73
aI2177
aaasVConstitutionIf
p7058
(lp7059
(lp7060
I3
a(lp7061
I1079
aaasVoff
p7062
(lp7063
(lp7064
I4
a(lp7065
I222
aaa(lp7066
(lp7067
I5
a(lp7068
I373
aaaasVobstacles
p7069
(lp7070
(lp7071
I3
a(lp7072
I1418
aaasVwell
p7073
(lp7074
(lp7075
I3
a(lp7076
I416
aaa(lp7077
(lp7078
I5
a(lp7079
I285
aaaasVfighting
p7080
(lp7081
(lp7082
I6
a(lp7083
I36
aaasVStates
p7084
(lp7085
(lp7086
I3
a(lp7087
I1890
aaa(lp7088
(lp7089
I6
a(lp7090
I265
aI430
aaaasVdrone
p7091
(lp7092
(lp7093
I5
a(lp7094
I298
aaa(lp7095
(lp7096
I6
a(lp7097
I236
aaaasV47
p7098
(lp7099
(lp7100
I5
a(lp7101
I191
aaasVlatest
p7102
(lp7103
(lp7104
I5
a(lp7105
I67
aI92
aI669
aaasVrocket
p7106
(lp7107
(lp7108
I4
a(lp7109
I345
aI420
aI474
aI479
aI806
aaasVless
p7110
(lp7111
(lp7112
I3
a(lp7113
I293
aaasVincreasingly
p7114
(lp7115
(lp7116
I5
a(lp7117
I287
aaasVpercent
p7118
(lp7119
(lp7120
I5
a(lp7121
I188
aI192
aI581
aaasVstored
p7122
(lp7123
(lp7124
I3
a(lp7125
I503
aaasVvirtual
p7126
(lp7127
(lp7128
I6
a(lp7129
I545
aaasVFourth
p7130
(lp7131
(lp7132
I3
a(lp7133
I142
aaasVsorted
p7134
(lp7135
(lp7136
I5
a(lp7137
I363
aaasVdensity
p7138
(lp7139
(lp7140
I5
a(lp7141
I514
aaasVCompany
p7142
(lp7143
(lp7144
I3
a(lp7145
I794
aaasVcapabilities
p7146
(lp7147
(lp7148
I5
a(lp7149
I330
aaasVadd
p7150
(lp7151
(lp7152
I5
a(lp7153
I649
aI697
aaasVcrack
p7154
(lp7155
(lp7156
I3
a(lp7157
I484
aI1196
aaasVwarrant
p7158
(lp7159
(lp7160
I3
a(lp7161
I1724
aaasVdetails
p7162
(lp7163
(lp7164
I5
a(lp7165
I466
aaasVincreased
p7166
(lp7167
(lp7168
I5
a(lp7169
I186
aaasVLaunch
p7170
(lp7171
(lp7172
I4
a(lp7173
I416
aI561
aI811
aaasVpropelled
p7174
(lp7175
(lp7176
I4
a(lp7177
I19
aI512
aaasVfive
p7178
(lp7179
(lp7180
I5
a(lp7181
I44
aaasVknow
p7182
(lp7183
(lp7184
I6
a(lp7185
I500
aaasVburden
p7186
(lp7187
(lp7188
I3
a(lp7189
I428
aI1746
aI1859
aaasV269
p7190
(lp7191
(lp7192
I4
a(lp7193
I429
aaasVpassword
p7194
(lp7195
(lp7196
I3
a(lp7197
I486
aI1224
aaasVcaseThe
p7198
(lp7199
(lp7200
I3
a(lp7201
I338
aaasVforcing
p7202
(lp7203
(lp7204
I3
a(lp7205
I2033
aaasVnecessary
p7206
(lp7207
(lp7208
I3
a(lp7209
I1364
aaasVlike
p7210
(lp7211
(lp7212
I3
a(lp7213
I252
aI568
aI739
aaa(lp7214
(lp7215
I4
a(lp7216
I72
aI855
aI864
aaaa(lp7217
(lp7218
I5
a(lp7219
I146
aaaasVfingerprints
p7220
(lp7221
(lp7222
I6
a(lp7223
I291
aaasVadmitted
p7224
(lp7225
(lp7226
I5
a(lp7227
I637
aaasVbecause
p7228
(lp7229
(lp7230
I3
a(lp7231
I375
aI868
aI942
aI1203
aI1553
aaa(lp7232
(lp7233
I4
a(lp7234
I57
aI192
aI445
aaaasVauthority
p7235
(lp7236
(lp7237
I3
a(lp7238
I533
aI805
aI1173
aI1254
aI1267
aI1300
aI1484
aaasVgrowth
p7239
(lp7240
(lp7241
I5
a(lp7242
I206
aI221
aI322
aaasVhome
p7243
(lp7244
(lp7245
I4
a(lp7246
I111
aaasVtransport
p7247
(lp7248
(lp7249
I5
a(lp7250
I339
aaasVlead
p7251
(lp7252
(lp7253
I3
a(lp7254
I996
aaasVbroad
p7255
(lp7256
(lp7257
I3
a(lp7258
I1409
aaasVavoid
p7259
(lp7260
(lp7261
I3
a(lp7262
I42
aaasVjurisdictionThe
p7263
(lp7264
(lp7265
I3
a(lp7266
I1425
aaasVdoes
p7267
(lp7268
(lp7269
I3
a(lp7270
I681
aI689
aI702
aI964
aI972
aI1170
aI2105
aaa(lp7271
(lp7272
I4
a(lp7273
I883
aI898
aI949
aaaa(lp7274
(lp7275
I6
a(lp7276
I208
aaaasVdiscretion
p7277
(lp7278
(lp7279
I3
a(lp7280
I1451
aaasVSheri
p7281
(lp7282
(lp7283
I3
a(lp7284
I450
aaasVexpansion
p7285
(lp7286
(lp7287
I5
a(lp7288
I202
aaasVFBIs
p7289
(lp7290
(lp7291
I3
a(lp7292
I82
aaasVabout
p7293
(lp7294
(lp7295
I3
a(lp7296
I16
aI359
aI540
aaa(lp7297
(lp7298
I4
a(lp7299
I268
aI428
aI791
aaaa(lp7300
(lp7301
I5
a(lp7302
I412
aI467
aaaasVrare
p7303
(lp7304
(lp7305
I6
a(lp7306
I516
aaasVgetting
p7307
(lp7308
(lp7309
I4
a(lp7310
I850
aaa(lp7311
(lp7312
I5
a(lp7313
I355
aaaasVdependence
p7314
(lp7315
(lp7316
I5
a(lp7317
I75
aI100
aaasVUS
p7318
(lp7319
(lp7320
I3
a(lp7321
I105
aI203
aI445
aI789
aaa(lp7322
(lp7323
I4
a(lp7324
I399
aaaa(lp7325
(lp7326
I5
a(lp7327
I20
aI195
aI211
aI247
aI317
aI455
aaaa(lp7328
(lp7329
I6
a(lp7330
I295
aaaasVAmericans
p7331
(lp7332
(lp7333
I3
a(lp7334
I94
aaa(lp7335
(lp7336
I4
a(lp7337
I160
aI574
aaaasVintroduced
p7338
(lp7339
(lp7340
I3
a(lp7341
I727
aaasVsoftware
p7342
(lp7343
(lp7344
I3
a(lp7345
I313
aI463
aI477
aI932
aI948
aI1113
aI1194
aI1661
aI1792
aI2124
aI2168
aI2189
aaasVequally
p7346
(lp7347
(lp7348
I3
a(lp7349
I1555
aaa(lp7350
(lp7351
I6
a(lp7352
I318
aaaasVown
p7353
(lp7354
(lp7355
I3
a(lp7356
I435
aI882
aI1090
aI1866
aaa(lp7357
(lp7358
I4
a(lp7359
I163
aaaa(lp7360
(lp7361
I5
a(lp7362
I14
aI84
aI110
aI227
aI293
aI311
aI328
aI395
aI441
aI631
aI653
aI702
aaaa(lp7363
(lp7364
I6
a(lp7365
I29
aaaasVwarrants
p7366
(lp7367
(lp7368
I3
a(lp7369
I48
aaasV\u201cto
p7370
(lp7371
(lp7372
I3
a(lp7373
I1407
aaasVSnowdensized
p7374
(lp7375
(lp7376
I6
a(lp7377
I25
aaasVlawful
p7378
(lp7379
(lp7380
I3
a(lp7381
I47
aI1047
aI1422
aI1723
aaasVmere
p7382
(lp7383
(lp7384
I3
a(lp7385
I27
aaasVEnforcement
p7386
(lp7387
(lp7388
I3
a(lp7389
I633
aaasVbiggest
p7390
(lp7391
(lp7392
I5
a(lp7393
I591
aaasVchunk
p7394
(lp7395
(lp7396
I6
a(lp7397
I152
aaasVcasethe
p7398
(lp7399
(lp7400
I3
a(lp7401
I767
aaasVbut
p7402
(lp7403
(lp7404
I3
a(lp7405
I121
aI1634
aI1667
aI2092
aI2115
aaa(lp7406
(lp7407
I4
a(lp7408
I256
aI272
aI542
aI663
aI760
aaaasVdelivery
p7409
(lp7410
(lp7411
I5
a(lp7412
I35
aI267
aI299
aI349
aI434
aI504
aI513
aI632
aaasVSuppose
p7413
(lp7414
(lp7415
I4
a(lp7416
I42
aaasVcourts
p7417
(lp7418
(lp7419
I3
a(lp7420
I140
aI551
aI1298
aI1325
aI1421
aI1449
aI1612
aI1628
aI1787
aaasVhe
p7421
(lp7422
(lp7423
I3
a(lp7424
I340
aI361
aI1280
aI1647
aI2002
aaa(lp7425
(lp7426
I6
a(lp7427
I552
aaaasVIve
p7428
(lp7429
(lp7430
I3
a(lp7431
I272
aaasVmade
p7432
(lp7433
(lp7434
I3
a(lp7435
I51
aI309
aI1525
aaa(lp7436
(lp7437
I4
a(lp7438
I197
aI835
aaaasVwhether
p7439
(lp7440
(lp7441
I3
a(lp7442
I1355
aaasVdangerous
p7443
(lp7444
(lp7445
I3
a(lp7446
I553
aI1534
aI1666
aaasVofficial
p7447
(lp7448
(lp7449
I6
a(lp7450
I131
aaasVsigned
p7451
(lp7452
(lp7453
I5
a(lp7454
I42
aaasVrecord
p7455
(lp7456
(lp7457
I3
a(lp7458
I826
aI1133
aaasVlimit
p7459
(lp7460
(lp7461
I4
a(lp7462
I507
aaasVfirm
p7463
(lp7464
(lp7465
I6
a(lp7466
I170
aaasVpenetrating
p7467
(lp7468
(lp7469
I6
a(lp7470
I543
aaasVtypesall
p7471
(lp7472
(lp7473
I6
a(lp7474
I83
aaasVprecedentsetting
p7475
(lp7476
(lp7477
I3
a(lp7478
I800
aaasVshooting
p7479
(lp7480
(lp7481
I3
a(lp7482
I497
aaasVfunctions
p7483
(lp7484
(lp7485
I3
a(lp7486
I2190
aaasVcompared
p7487
(lp7488
(lp7489
I6
a(lp7490
I255
aaasVOhiobased
p7491
(lp7492
(lp7493
I5
a(lp7494
I49
aaasVincredible
p7495
(lp7496
(lp7497
I4
a(lp7498
I533
aaasVcorporation
p7499
(lp7500
(lp7501
I3
a(lp7502
I2118
aaa(lp7503
(lp7504
I4
a(lp7505
I86
aaaasVattacked
p7506
(lp7507
(lp7508
I3
a(lp7509
I64
aaasVoffensive
p7510
(lp7511
(lp7512
I3
a(lp7513
I322
aaasV40
p7514
(lp7515
(lp7516
I5
a(lp7517
I160
aaasVdoneAs
p7518
(lp7519
(lp7520
I3
a(lp7521
I1463
aaasVother
p7522
(lp7523
(lp7524
I3
a(lp7525
I13
aI285
aI1007
aI1508
aI2008
aaa(lp7526
(lp7527
I4
a(lp7528
I303
aI583
aI747
aaaa(lp7529
(lp7530
I5
a(lp7531
I77
aI102
aI144
aI488
aaaasVwitness
p7532
(lp7533
(lp7534
I3
a(lp7535
I2080
aaasVjunk
p7536
(lp7537
(lp7538
I4
a(lp7539
I738
aaasVstay
p7540
(lp7541
(lp7542
I4
a(lp7543
I682
aaasVAct
p7544
(lp7545
(lp7546
I3
a(lp7547
I68
aI634
aI771
aI810
aI963
aI990
aI1033
aI1169
aI1406
aI1426
aI1596
aI1944
aaasVelse
p7548
(lp7549
(lp7550
I6
a(lp7551
I482
aaasVranks
p7552
(lp7553
(lp7554
I5
a(lp7555
I125
aaa(lp7556
(lp7557
I6
a(lp7558
I183
aaaasVlasted
p7559
(lp7560
(lp7561
I4
a(lp7562
I187
aaasVrule
p7563
(lp7564
(lp7565
I3
a(lp7566
I1773
aaasVportion
p7567
(lp7568
(lp7569
I4
a(lp7570
I621
aaa(lp7571
(lp7572
I6
a(lp7573
I111
aaaasVquestionnaires
p7574
(lp7575
(lp7576
I6
a(lp7577
I378
aaas.