(dp0
I0
S'pagina_  0.html'
p1
sI1
S'pagina_  1.html'
p2
sI2
S'pagina_  2.html'
p3
sI3
S'pagina_  3.html'
p4
sI4
S'pagina_  4.html'
p5
sI5
S'pagina_  5.html'
p6
sI6
S'pagina_  6.html'
p7
sI7
S'wired.html'
p8
s.